libdar64.so.5000:_Z21memory_check_snapshotv
libdar64.so.5000:_Z30memory_check_special_new_sizedm
libdar64.so.5000:_Z31memory_check_special_report_newPKvm
libdar64.so.5000:_Z34memory_check_special_report_deletePKv
libdar64.so.5000:_ZN6libdar10cat_deviceC1ERKNS_8limitintImEES4_tRKNS_8datetimeES7_S7_RKNSt7__cxx1112basic_stringIcSt11char_traitsIcESaIcEEEttS4_
libdar64.so.5000:_ZN6libdar10cat_deviceC1ERNS_16user_interactionERKNS_13smart_pointerINS_15pile_descriptorEEERKNS_15archive_versionENS_12saved_statusEb
libdar64.so.5000:_ZN6libdar10cat_deviceC2ERKNS_8limitintImEES4_tRKNS_8datetimeES7_S7_RKNSt7__cxx1112basic_stringIcSt11char_traitsIcESaIcEEEttS4_
libdar64.so.5000:_ZN6libdar10cat_deviceC2ERNS_16user_interactionERKNS_13smart_pointerINS_15pile_descriptorEEERKNS_15archive_versionENS_12saved_statusEb
libdar64.so.5000:_ZN6libdar10cat_entree15change_locationERKNS_13smart_pointerINS_15pile_descriptorEEE
libdar64.so.5000:_ZN6libdar10cat_entree4readERNS_16user_interactionEPNS_11memory_poolERKNS_13smart_pointerINS_15pile_descriptorEEERKNS_15archive_versionERNS_12entree_statsERSt3mapINS_8limitintImEEPNS_10cat_etoileESt4lessISH_ESaISt4pairIKSH_SJ_EEENS_11compressionEbbb
libdar64.so.5000:_ZN6libdar10cat_entreeC1ERKNS_13smart_pointerINS_15pile_descriptorEEEb
libdar64.so.5000:_ZN6libdar10cat_entreeC2ERKNS_13smart_pointerINS_15pile_descriptorEEEb
libdar64.so.5000:_ZN6libdar10cat_etoile7add_refEPv
libdar64.so.5000:_ZN6libdar10cat_etoile8drop_refEPv
libdar64.so.5000:_ZN6libdar10cat_etoileC1EPNS_9cat_inodeERKNS_8limitintImEE
libdar64.so.5000:_ZN6libdar10cat_etoileC2EPNS_9cat_inodeERKNS_8limitintImEE
libdar64.so.5000:_ZN6libdar10cat_mirage16post_constructorERKNS_15pile_descriptorE
libdar64.so.5000:_ZN6libdar10cat_mirage4initERNS_16user_interactionERKNS_13smart_pointerINS_15pile_descriptorEEERKNS_15archive_versionENS_12saved_statusERNS_12entree_statsERSt3mapINS_8limitintImEEPNS_10cat_etoileESt4lessISG_ESaISt4pairIKSG_SI_EEENS_11compressionENS0_13mirage_formatEbb
libdar64.so.5000:_ZN6libdar10cat_mirageC1ERNS_16user_interactionERKNS_13smart_pointerINS_15pile_descriptorEEERKNS_15archive_versionENS_12saved_statusERNS_12entree_statsERSt3mapINS_8limitintImEEPNS_10cat_etoileESt4lessISG_ESaISt4pairIKSG_SI_EEENS_11compressionENS0_13mirage_formatEbb
libdar64.so.5000:_ZN6libdar10cat_mirageC1ERNS_16user_interactionERKNS_13smart_pointerINS_15pile_descriptorEEERKNS_15archive_versionENS_12saved_statusERNS_12entree_statsERSt3mapINS_8limitintImEEPNS_10cat_etoileESt4lessISG_ESaISt4pairIKSG_SI_EEENS_11compressionEbb
libdar64.so.5000:_ZN6libdar10cat_mirageC2ERNS_16user_interactionERKNS_13smart_pointerINS_15pile_descriptorEEERKNS_15archive_versionENS_12saved_statusERNS_12entree_statsERSt3mapINS_8limitintImEEPNS_10cat_etoileESt4lessISG_ESaISt4pairIKSG_SI_EEENS_11compressionENS0_13mirage_formatEbb
libdar64.so.5000:_ZN6libdar10cat_mirageC2ERNS_16user_interactionERKNS_13smart_pointerINS_15pile_descriptorEEERKNS_15archive_versionENS_12saved_statusERNS_12entree_statsERSt3mapINS_8limitintImEEPNS_10cat_etoileESt4lessISG_ESaISt4pairIKSG_SI_EEENS_11compressionEbb
libdar64.so.5000:_ZN6libdar10cat_mirageaSERKS0_
libdar64.so.5000:_ZN6libdar10compressor10clean_readEv
libdar64.so.5000:_ZN6libdar10compressor10gzip_writeEPKcm
libdar64.so.5000:_ZN6libdar10compressor10none_writeEPKcm
libdar64.so.5000:_ZN6libdar10compressor11change_algoENS_11compressionEm
libdar64.so.5000:_ZN6libdar10compressor11clean_writeEv
libdar64.so.5000:_ZN6libdar10compressor15local_terminateEv
libdar64.so.5000:_ZN6libdar10compressor16compr_flush_readEv
libdar64.so.5000:_ZN6libdar10compressor16lzo_block_header4dumpERNS_12generic_fileE
libdar64.so.5000:_ZN6libdar10compressor16lzo_block_header8set_fromERNS_12generic_fileE
libdar64.so.5000:_ZN6libdar10compressor17compr_flush_writeEv
libdar64.so.5000:_ZN6libdar10compressor18resume_compressionEv
libdar64.so.5000:_ZN6libdar10compressor19suspend_compressionEv
libdar64.so.5000:_ZN6libdar10compressor29lzo_compress_buffer_and_writeEv
libdar64.so.5000:_ZN6libdar10compressor33lzo_read_and_uncompress_to_bufferEv
libdar64.so.5000:_ZN6libdar10compressor4initENS_11compressionEPNS_12generic_fileEm
libdar64.so.5000:_ZN6libdar10compressor4xferC1EmNS_15wrapperlib_modeE
libdar64.so.5000:_ZN6libdar10compressor4xferC2EmNS_15wrapperlib_modeE
libdar64.so.5000:_ZN6libdar10compressor4xferD1Ev
libdar64.so.5000:_ZN6libdar10compressor4xferD2Ev
libdar64.so.5000:_ZN6libdar10compressor8lzo_readEPcm
libdar64.so.5000:_ZN6libdar10compressor9gzip_readEPcm
libdar64.so.5000:_ZN6libdar10compressor9lzo_writeEPKcm
libdar64.so.5000:_ZN6libdar10compressor9none_readEPcm
libdar64.so.5000:_ZN6libdar10compressorC1ENS_11compressionEPNS_12generic_fileEm
libdar64.so.5000:_ZN6libdar10compressorC1ENS_11compressionERNS_12generic_fileEm
libdar64.so.5000:_ZN6libdar10compressorC2ENS_11compressionEPNS_12generic_fileEm
libdar64.so.5000:_ZN6libdar10compressorC2ENS_11compressionERNS_12generic_fileEm
libdar64.so.5000:_ZN6libdar10compressorD0Ev
libdar64.so.5000:_ZN6libdar10compressorD1Ev
libdar64.so.5000:_ZN6libdar10compressorD2Ev
libdar64.so.5000:_ZN6libdar10crit_chain3addERKNS_11crit_actionE
libdar64.so.5000:_ZN6libdar10crit_chain4gobeERS0_
libdar64.so.5000:_ZN6libdar10crit_chain7destroyEv
libdar64.so.5000:_ZN6libdar10crit_chain9copy_fromERKS0_
libdar64.so.5000:_ZN6libdar10crypto_sym11get_algo_idENS_11crypto_algoE
libdar64.so.5000:_ZN6libdar10crypto_sym11max_key_lenENS_11crypto_algoE
libdar64.so.5000:_ZN6libdar10crypto_sym12decrypt_dataERKNS_8limitintImEEPKcjPcj
libdar64.so.5000:_ZN6libdar10crypto_sym12encrypt_dataERKNS_8limitintImEEPKcjjPcj
libdar64.so.5000:_ZN6libdar10crypto_sym13dar_set_essivERKNS_11secu_stringERP18gcry_cipher_handleRKNS_15archive_versionENS_11crypto_algoE
libdar64.so.5000:_ZN6libdar10crypto_sym14pkcs5_pass2keyERKNS_11secu_stringERKNSt7__cxx1112basic_stringIcSt11char_traitsIcESaIcEEEmm
libdar64.so.5000:_ZN6libdar10crypto_sym18max_key_len_libdarENS_11crypto_algoE
libdar64.so.5000:_ZN6libdar10crypto_sym20is_a_strong_passwordENS_11crypto_algoERKNS_11secu_stringE
libdar64.so.5000:_ZN6libdar10crypto_sym24encrypted_block_size_forEj
libdar64.so.5000:_ZN6libdar10crypto_sym30clear_block_allocated_size_forEj
libdar64.so.5000:_ZN6libdar10crypto_sym7detruitEv
libdar64.so.5000:_ZN6libdar10crypto_sym9make_ivecERKNS_8limitintImEEPhmRKP18gcry_cipher_handle
libdar64.so.5000:_ZN6libdar10crypto_symC1EjRKNS_11secu_stringERNS_12generic_fileEbRKNS_15archive_versionENS_11crypto_algoEb
libdar64.so.5000:_ZN6libdar10crypto_symC2EjRKNS_11secu_stringERNS_12generic_fileEbRKNS_15archive_versionENS_11crypto_algoEb
libdar64.so.5000:_ZN6libdar10list_entry15datetime2time_tERKNS_8datetimeE
libdar64.so.5000:_ZN6libdar10list_entryC1Ev
libdar64.so.5000:_ZN6libdar10list_entryC2Ev
libdar64.so.5000:_ZN6libdar10local_dateB5cxx11ERKNS_9cat_inodeE
libdar64.so.5000:_ZN6libdar10local_flagB5cxx11ERKNS_9cat_inodeEbb
libdar64.so.5000:_ZN6libdar10local_permB5cxx11ERKNS_9cat_inodeEb
libdar64.so.5000:_ZN6libdar10local_sizeB5cxx11ERKNS_9cat_inodeEb
libdar64.so.5000:_ZN6libdar10statistics4initEb
libdar64.so.5000:_ZN6libdar10statistics5clearEv
libdar64.so.5000:_ZN6libdar10statistics7detruitEv
libdar64.so.5000:_ZN6libdar10statistics9copy_fromERKS0_
libdar64.so.5000:_ZN6libdar10tools_initEv
libdar64.so.5000:_ZN6libdar10wrapperlib10z_compressEi
libdar64.so.5000:_ZN6libdar10wrapperlib11bz_compressEi
libdar64.so.5000:_ZN6libdar10wrapperlib11lzma_encodeEi
libdar64.so.5000:_ZN6libdar10wrapperlib12z_decompressEi
libdar64.so.5000:_ZN6libdar10wrapperlib13bz_decompressEi
libdar64.so.5000:_ZN6libdar10wrapperlib13compressResetEv
libdar64.so.5000:_ZN6libdar10wrapperlib13z_compressEndEv
libdar64.so.5000:_ZN6libdar10wrapperlib13z_set_next_inEPKc
libdar64.so.5000:_ZN6libdar10wrapperlib14bz_compressEndEv
libdar64.so.5000:_ZN6libdar10wrapperlib14bz_set_next_inEPKc
libdar64.so.5000:_ZN6libdar10wrapperlib14z_compressInitEm
libdar64.so.5000:_ZN6libdar10wrapperlib14z_set_avail_inEm
libdar64.so.5000:_ZN6libdar10wrapperlib14z_set_next_outEPc
libdar64.so.5000:_ZN6libdar10wrapperlib15bz_compressInitEm
libdar64.so.5000:_ZN6libdar10wrapperlib15bz_set_avail_inEm
libdar64.so.5000:_ZN6libdar10wrapperlib15bz_set_next_outEPc
libdar64.so.5000:_ZN6libdar10wrapperlib15decompressResetEv
libdar64.so.5000:_ZN6libdar10wrapperlib15z_decompressEndEv
libdar64.so.5000:_ZN6libdar10wrapperlib15z_set_avail_outEm
libdar64.so.5000:_ZN6libdar10wrapperlib16bz_decompressEndEv
libdar64.so.5000:_ZN6libdar10wrapperlib16bz_set_avail_outEm
libdar64.so.5000:_ZN6libdar10wrapperlib16lzma_set_next_inEPKc
libdar64.so.5000:_ZN6libdar10wrapperlib16z_decompressInitEv
libdar64.so.5000:_ZN6libdar10wrapperlib17bz_decompressInitEv
libdar64.so.5000:_ZN6libdar10wrapperlib17lzma_compressInitEm
libdar64.so.5000:_ZN6libdar10wrapperlib17lzma_set_avail_inEm
libdar64.so.5000:_ZN6libdar10wrapperlib17lzma_set_next_outEPc
libdar64.so.5000:_ZN6libdar10wrapperlib18lzma_set_avail_outEm
libdar64.so.5000:_ZN6libdar10wrapperlib19lzma_decompressInitEv
libdar64.so.5000:_ZN6libdar10wrapperlib8lzma_endEv
libdar64.so.5000:_ZN6libdar10wrapperlibC1ENS_15wrapperlib_modeE
libdar64.so.5000:_ZN6libdar10wrapperlibC1ERKS0_
libdar64.so.5000:_ZN6libdar10wrapperlibC2ENS_15wrapperlib_modeE
libdar64.so.5000:_ZN6libdar10wrapperlibC2ERKS0_
libdar64.so.5000:_ZN6libdar10wrapperlibD1Ev
libdar64.so.5000:_ZN6libdar10wrapperlibD2Ev
libdar64.so.5000:_ZN6libdar10wrapperlibaSERKS0_
libdar64.so.5000:_ZN6libdar11cat_detruitC1ERKNS_13smart_pointerINS_15pile_descriptorEEERKNS_15archive_versionEb
libdar64.so.5000:_ZN6libdar11cat_detruitC2ERKNS_13smart_pointerINS_15pile_descriptorEEERKNS_15archive_versionEb
libdar64.so.5000:_ZN6libdar11crypto_asym13build_contextEv
libdar64.so.5000:_ZN6libdar11crypto_asym14build_key_listERKSt6vectorINSt7__cxx1112basic_stringIcSt11char_traitsIcESaIcEEESaIS7_EERPP10_gpgme_keyb
libdar64.so.5000:_ZN6libdar11crypto_asym15set_signatoriesERKSt6vectorINSt7__cxx1112basic_stringIcSt11char_traitsIcESaIcEEESaIS7_EE
libdar64.so.5000:_ZN6libdar11crypto_asym16release_key_listERPP10_gpgme_key
libdar64.so.5000:_ZN6libdar11crypto_asym19fill_signing_resultEv
libdar64.so.5000:_ZN6libdar11crypto_asym7decryptERNS_12generic_fileES2_
libdar64.so.5000:_ZN6libdar11crypto_asym7encryptERKSt6vectorINSt7__cxx1112basic_stringIcSt11char_traitsIcESaIcEEESaIS7_EERNS_12generic_fileESD_
libdar64.so.5000:_ZN6libdar11dar_gettextEPKc
libdar64.so.5000:_ZN6libdar11filtre_testERNS_16user_interactionEPNS_11memory_poolERKNS_4maskES6_RKNS_9catalogueEbbbbbRNS_10statisticsE
libdar64.so.5000:_ZN6libdar11get_versionERmS0_S0_b
libdar64.so.5000:_ZN6libdar11get_versionERmS0_b
libdar64.so.5000:_ZN6libdar11mem_cluster11set_slot_inEmmb
libdar64.so.5000:_ZN6libdar11mem_cluster5allocEv
libdar64.so.5000:_ZN6libdar11mem_cluster7releaseEPv
libdar64.so.5000:_ZN6libdar11mem_clusterC1EmmPNS_11mem_managerE
libdar64.so.5000:_ZN6libdar11mem_clusterC2EmmPNS_11mem_managerE
libdar64.so.5000:_ZN6libdar11mem_clusterD0Ev
libdar64.so.5000:_ZN6libdar11mem_clusterD1Ev
libdar64.so.5000:_ZN6libdar11mem_clusterD2Ev
libdar64.so.5000:_ZN6libdar11memory_file11skip_to_eofEv
libdar64.so.5000:_ZN6libdar11memory_file13skip_relativeEi
libdar64.so.5000:_ZN6libdar11memory_file14inherited_readEPcm
libdar64.so.5000:_ZN6libdar11memory_file15inherited_writeEPKcm
libdar64.so.5000:_ZN6libdar11memory_file4skipERKNS_8limitintImEE
libdar64.so.5000:_ZN6libdar11memory_pool15garbage_collectEv
libdar64.so.5000:_ZN6libdar11memory_pool5allocEm
libdar64.so.5000:_ZN6libdar11memory_pool7releaseEPv
libdar64.so.5000:_ZN6libdar11memory_poolD1Ev
libdar64.so.5000:_ZN6libdar11memory_poolD2Ev
libdar64.so.5000:_ZN6libdar11secu_string17clean_and_destroyEv
libdar64.so.5000:_ZN6libdar11secu_string17is_string_securedEv
libdar64.so.5000:_ZN6libdar11secu_string21reduce_string_size_toEm
libdar64.so.5000:_ZN6libdar11secu_string3setEim
libdar64.so.5000:_ZN6libdar11secu_string4initEm
libdar64.so.5000:_ZN6libdar11secu_string9append_atEmPKcm
libdar64.so.5000:_ZN6libdar11secu_string9append_atEmim
libdar64.so.5000:_ZN6libdar11secu_string9copy_fromERKS0_
libdar64.so.5000:_ZN6libdar11secu_string9randomizeEm
libdar64.so.5000:_ZN6libdar11secu_stringixEm
libdar64.so.5000:_ZN6libdar11simple_mask9copy_fromERKS0_
libdar64.so.5000:_ZN6libdar11simple_maskC1ERKNSt7__cxx1112basic_stringIcSt11char_traitsIcESaIcEEEb
libdar64.so.5000:_ZN6libdar11simple_maskC2ERKNSt7__cxx1112basic_stringIcSt11char_traitsIcESaIcEEEb
libdar64.so.5000:_ZN6libdar11simple_maskaSERKS0_
libdar64.so.5000:_ZN6libdar11sparse_file10write_holeERKNS_8limitintImEE
libdar64.so.5000:_ZN6libdar11sparse_file13look_for_holeEPKcmmRmS3_
libdar64.so.5000:_ZN6libdar11sparse_file14inherited_readEPcm
libdar64.so.5000:_ZN6libdar11sparse_file15inherited_writeEPKcm
libdar64.so.5000:_ZN6libdar11sparse_file18dump_pending_zerosEv
libdar64.so.5000:_ZN6libdar11sparse_file19count_initial_zerosEPKcm
libdar64.so.5000:_ZN6libdar11sparse_file20inherited_sync_writeEv
libdar64.so.5000:_ZN6libdar11sparse_file5resetEv
libdar64.so.5000:_ZN6libdar11sparse_file7copy_toERNS_12generic_fileERKNS_8limitintImEERPNS_3crcE
libdar64.so.5000:_ZN6libdar11sparse_fileC1EPNS_12generic_fileERKNS_8limitintImEE
libdar64.so.5000:_ZN6libdar11sparse_fileC2EPNS_12generic_fileERKNS_8limitintImEE
libdar64.so.5000:_ZN6libdar11terminateur14read_catalogueERNS_12generic_fileEbRKNS_15archive_versionERKNS_8limitintImEE
libdar64.so.5000:_ZN6libdar11terminateur4dumpERNS_12generic_fileE
libdar64.so.5000:_ZN6libdar11trivial_sar10where_am_iEv
libdar64.so.5000:_ZN6libdar11trivial_sar13skip_relativeEi
libdar64.so.5000:_ZN6libdar11trivial_sar14inherited_readEPcm
libdar64.so.5000:_ZN6libdar11trivial_sar15inherited_writeEPKcm
libdar64.so.5000:_ZN6libdar11trivial_sar19inherited_terminateEv
libdar64.so.5000:_ZN6libdar11trivial_sar4initERKNS_5labelE
libdar64.so.5000:_ZN6libdar11trivial_sar4skipERKNS_8limitintImEE
libdar64.so.5000:_ZN6libdar11trivial_sarC1ERKNS_16user_interactionENS_7gf_modeERKNSt7__cxx1112basic_stringIcSt11char_traitsIcESaIcEEESC_RKNS_8entrepotERKNS_5labelESI_SC_bbbmNS_9hash_algoERKNS_8limitintImEEb
libdar64.so.5000:_ZN6libdar11trivial_sarC1ERKNS_16user_interactionEPNS_12generic_fileERKNS_5labelES8_bRKNSt7__cxx1112basic_stringIcSt11char_traitsIcESaIcEEE
libdar64.so.5000:_ZN6libdar11trivial_sarC1ERKNS_16user_interactionERKNSt7__cxx1112basic_stringIcSt11char_traitsIcESaIcEEEb
libdar64.so.5000:_ZN6libdar11trivial_sarC2ERKNS_16user_interactionENS_7gf_modeERKNSt7__cxx1112basic_stringIcSt11char_traitsIcESaIcEEESC_RKNS_8entrepotERKNS_5labelESI_SC_bbbmNS_9hash_algoERKNS_8limitintImEEb
libdar64.so.5000:_ZN6libdar11trivial_sarC2ERKNS_16user_interactionEPNS_12generic_fileERKNS_5labelES8_bRKNSt7__cxx1112basic_stringIcSt11char_traitsIcESaIcEEE
libdar64.so.5000:_ZN6libdar11trivial_sarC2ERKNS_16user_interactionERKNSt7__cxx1112basic_stringIcSt11char_traitsIcESaIcEEEb
libdar64.so.5000:_ZN6libdar11trivial_sarD0Ev
libdar64.so.5000:_ZN6libdar11trivial_sarD1Ev
libdar64.so.5000:_ZN6libdar11trivial_sarD2Ev
libdar64.so.5000:_ZN6libdar11trontextual4initEPNS_12generic_fileE
libdar64.so.5000:_ZN6libdar11trontextualC1EPNS_12generic_fileERKNS_8limitintImEES6_NS_7gf_modeEb
libdar64.so.5000:_ZN6libdar11trontextualC1EPNS_12generic_fileERKNS_8limitintImEES6_b
libdar64.so.5000:_ZN6libdar11trontextualC2EPNS_12generic_fileERKNS_8limitintImEES6_NS_7gf_modeEb
libdar64.so.5000:_ZN6libdar11trontextualC2EPNS_12generic_fileERKNS_8limitintImEES6_b
libdar64.so.5000:_ZN6libdar12compile_time11libthreadarEv
libdar64.so.5000:_ZN6libdar12compile_time11thread_safeEv
libdar64.so.5000:_ZN6libdar12compile_time12furtive_readEv
libdar64.so.5000:_ZN6libdar12compile_time13FSA_birthtimeEv
libdar64.so.5000:_ZN6libdar12compile_time13posix_fadviseEv
libdar64.so.5000:_ZN6libdar12compile_time13special_allocEv
libdar64.so.5000:_ZN6libdar12compile_time13system_endianEv
libdar64.so.5000:_ZN6libdar12compile_time14FSA_linux_extXEv
libdar64.so.5000:_ZN6libdar12compile_time16microsecond_readEv
libdar64.so.5000:_ZN6libdar12compile_time17microsecond_writeEv
libdar64.so.5000:_ZN6libdar12compile_time17public_key_cipherEv
libdar64.so.5000:_ZN6libdar12compile_time21symlink_restore_datesEv
libdar64.so.5000:_ZN6libdar12compile_time2eaEv
libdar64.so.5000:_ZN6libdar12compile_time4bitsEv
libdar64.so.5000:_ZN6libdar12compile_time4libzEv
libdar64.so.5000:_ZN6libdar12compile_time5libxzEv
libdar64.so.5000:_ZN6libdar12compile_time6libbz2Ev
libdar64.so.5000:_ZN6libdar12compile_time6liblzoEv
libdar64.so.5000:_ZN6libdar12compile_time6nodumpEv
libdar64.so.5000:_ZN6libdar12compile_time8fast_dirEv
libdar64.so.5000:_ZN6libdar12compile_time9largefileEv
libdar64.so.5000:_ZN6libdar12compile_time9libgcryptEv
libdar64.so.5000:_ZN6libdar12ea_attributsC1ERKS0_
libdar64.so.5000:_ZN6libdar12ea_attributsC1ERNS_12generic_fileERKNS_15archive_versionE
libdar64.so.5000:_ZN6libdar12ea_attributsC2ERKS0_
libdar64.so.5000:_ZN6libdar12ea_attributsC2ERNS_12generic_fileERKNS_15archive_versionE
libdar64.so.5000:_ZN6libdar12entree_stats3addEPKNS_10cat_entreeE
libdar64.so.5000:_ZN6libdar12filtre_mergeERNS_16user_interactionEPNS_11memory_poolERKNS_4maskES6_RKNS_15pile_descriptorERNS_9catalogueEPKSA_SD_bbbbRNS_10statisticsEbS6_S6_RKNS_8limitintImEEbRKNS_11crit_actionEbbSJ_RKSt3setINS_10fsa_familyESt4lessISO_ESaISO_EE
libdar64.so.5000:_ZN6libdar12fsa_infinintC1ERNS_12generic_fileENS_10fsa_familyENS_10fsa_natureE
libdar64.so.5000:_ZN6libdar12fsa_infinintC2ERNS_12generic_fileENS_10fsa_familyENS_10fsa_natureE
libdar64.so.5000:_ZN6libdar12generic_file10enable_crcEb
libdar64.so.5000:_ZN6libdar12generic_file10flush_readEv
libdar64.so.5000:_ZN6libdar12generic_file10read_aheadERKNS_8limitintImEE
libdar64.so.5000:_ZN6libdar12generic_file10sync_writeEv
libdar64.so.5000:_ZN6libdar12generic_file4diffERS0_RKNS_8limitintImEES5_S5_RPNS_3crcE
libdar64.so.5000:_ZN6libdar12generic_file4diffERS0_RKNS_8limitintImEES5_S5_RPNS_3crcERS3_
libdar64.so.5000:_ZN6libdar12generic_file4readEPcm
libdar64.so.5000:_ZN6libdar12generic_file5writeEPKcm
libdar64.so.5000:_ZN6libdar12generic_file5writeERKNSt7__cxx1112basic_stringIcSt11char_traitsIcESaIcEEE
libdar64.so.5000:_ZN6libdar12generic_file7copy_toERS0_
libdar64.so.5000:_ZN6libdar12generic_file7copy_toERS0_NS_8limitintImEE
libdar64.so.5000:_ZN6libdar12generic_file7copy_toERS0_RKNS_8limitintImEERPNS_3crcE
libdar64.so.5000:_ZN6libdar12generic_file7copy_toERS0_j
libdar64.so.5000:_ZN6libdar12generic_file7destroyEv
libdar64.so.5000:_ZN6libdar12generic_file7get_crcEv
libdar64.so.5000:_ZN6libdar12generic_file8read_crcEPcm
libdar64.so.5000:_ZN6libdar12generic_file9copy_fromERKS0_
libdar64.so.5000:_ZN6libdar12generic_file9read_backERc
libdar64.so.5000:_ZN6libdar12generic_file9reset_crcERKNS_8limitintImEE
libdar64.so.5000:_ZN6libdar12generic_file9write_crcEPKcm
libdar64.so.5000:_ZN6libdar12hash_fichier19inherited_terminateEv
libdar64.so.5000:_ZN6libdar12hash_fichier29fichier_global_inherited_readEPcmRmRNSt7__cxx1112basic_stringIcSt11char_traitsIcESaIcEEE
libdar64.so.5000:_ZN6libdar12hash_fichier30fichier_global_inherited_writeEPKcm
libdar64.so.5000:_ZN6libdar12hash_fichierC1ERNS_16user_interactionEPNS_14fichier_globalERKNSt7__cxx1112basic_stringIcSt11char_traitsIcESaIcEEES4_NS_9hash_algoE
libdar64.so.5000:_ZN6libdar12hash_fichierC2ERNS_16user_interactionEPNS_14fichier_globalERKNSt7__cxx1112basic_stringIcSt11char_traitsIcESaIcEEES4_NS_9hash_algoE
libdar64.so.5000:_ZN6libdar12hash_fichierD0Ev
libdar64.so.5000:_ZN6libdar12hash_fichierD1Ev
libdar64.so.5000:_ZN6libdar12hash_fichierD2Ev
libdar64.so.5000:_ZN6libdar12mk_signatureEhNS_12saved_statusE
libdar64.so.5000:_ZN6libdar12regular_mask8set_pregERKNSt7__cxx1112basic_stringIcSt11char_traitsIcESaIcEEEb
libdar64.so.5000:_ZN6libdar12regular_maskC1ERKNSt7__cxx1112basic_stringIcSt11char_traitsIcESaIcEEEb
libdar64.so.5000:_ZN6libdar12regular_maskC1ERKS0_
libdar64.so.5000:_ZN6libdar12regular_maskC2ERKNSt7__cxx1112basic_stringIcSt11char_traitsIcESaIcEEEb
libdar64.so.5000:_ZN6libdar12regular_maskC2ERKS0_
libdar64.so.5000:_ZN6libdar12regular_maskaSERKS0_
libdar64.so.5000:_ZN6libdar12slice_layout4readERNS_12generic_fileE
libdar64.so.5000:_ZN6libdar12slice_layout5clearEv
libdar64.so.5000:_ZN6libdar12tools_getcwdB5cxx11Ev
libdar64.so.5000:_ZN6libdar12tools_memxorEPvPKvm
libdar64.so.5000:_ZN6libdar12tools_printfB5cxx11EPKcz
libdar64.so.5000:_ZN6libdar12tools_systemERNS_16user_interactionERKSt6vectorINSt7__cxx1112basic_stringIcSt11char_traitsIcESaIcEEESaIS8_EE
libdar64.so.5000:_ZN6libdar12tronconneuse11skip_to_eofEv
libdar64.so.5000:_ZN6libdar12tronconneuse13skip_relativeEi
libdar64.so.5000:_ZN6libdar12tronconneuse14inherited_readEPcm
libdar64.so.5000:_ZN6libdar12tronconneuse15inherited_writeEPKcm
libdar64.so.5000:_ZN6libdar12tronconneuse20inherited_read_aheadERKNS_8limitintImEE
libdar64.so.5000:_ZN6libdar12tronconneuse20position_clear2cryptERKNS_8limitintImEERS2_S5_S5_S5_
libdar64.so.5000:_ZN6libdar12tronconneuse20position_crypt2clearERKNS_8limitintImEERS2_
libdar64.so.5000:_ZN6libdar12tronconneuse45remove_trailing_clear_data_from_encrypted_bufERKNS_8limitintImEE
libdar64.so.5000:_ZN6libdar12tronconneuse4skipERKNS_8limitintImEE
libdar64.so.5000:_ZN6libdar12tronconneuse5flushEv
libdar64.so.5000:_ZN6libdar12tronconneuse7detruitEv
libdar64.so.5000:_ZN6libdar12tronconneuse8fill_bufEv
libdar64.so.5000:_ZN6libdar12tronconneuse8init_bufEv
libdar64.so.5000:_ZN6libdar12tronconneuse9copy_fromERKS0_
libdar64.so.5000:_ZN6libdar12tronconneuse9skippableENS_12generic_file12skippabilityERKNS_8limitintImEE
libdar64.so.5000:_ZN6libdar12tronconneuseC1EjRNS_12generic_fileEbRKNS_15archive_versionE
libdar64.so.5000:_ZN6libdar12tronconneuseC2EjRNS_12generic_fileEbRKNS_15archive_versionE
libdar64.so.5000:_ZN6libdar12tronconneuseaSERKS0_
libdar64.so.5000:_ZN6libdar13cat_directory12add_childrenEPNS_9cat_nommeE
libdar64.so.5000:_ZN6libdar13cat_directory15change_locationERKNS_13smart_pointerINS_15pile_descriptorEEE
libdar64.so.5000:_ZN6libdar13cat_directory21tail_to_read_childrenEv
libdar64.so.5000:_ZN6libdar13cat_directory34remove_all_mirages_and_reduce_dirsEv
libdar64.so.5000:_ZN6libdar13cat_directory37set_all_mirage_s_inode_wrote_field_toEb
libdar64.so.5000:_ZN6libdar13cat_directory38set_all_mirage_s_inode_dumped_field_toEb
libdar64.so.5000:_ZN6libdar13cat_directory39recursively_set_to_unsaved_data_and_FSAEv
libdar64.so.5000:_ZN6libdar13cat_directory5clearEv
libdar64.so.5000:_ZN6libdar13cat_directory6removeERKNSt7__cxx1112basic_stringIcSt11char_traitsIcESaIcEEE
libdar64.so.5000:_ZN6libdar13cat_directoryC1ERKNS_8limitintImEES4_tRKNS_8datetimeES7_S7_RKNSt7__cxx1112basic_stringIcSt11char_traitsIcESaIcEEES4_
libdar64.so.5000:_ZN6libdar13cat_directoryC1ERKS0_
libdar64.so.5000:_ZN6libdar13cat_directoryC1ERNS_16user_interactionERKNS_13smart_pointerINS_15pile_descriptorEEERKNS_15archive_versionENS_12saved_statusERNS_12entree_statsERSt3mapINS_8limitintImEEPNS_10cat_etoileESt4lessISG_ESaISt4pairIKSG_SI_EEENS_11compressionEbbb
libdar64.so.5000:_ZN6libdar13cat_directoryC2ERKNS_8limitintImEES4_tRKNS_8datetimeES7_S7_RKNSt7__cxx1112basic_stringIcSt11char_traitsIcESaIcEEES4_
libdar64.so.5000:_ZN6libdar13cat_directoryC2ERKS0_
libdar64.so.5000:_ZN6libdar13cat_directoryC2ERNS_16user_interactionERKNS_13smart_pointerINS_15pile_descriptorEEERKNS_15archive_versionENS_12saved_statusERNS_12entree_statsERSt3mapINS_8limitintImEEPNS_10cat_etoileESt4lessISG_ESaISt4pairIKSG_SI_EEENS_11compressionEbbb
libdar64.so.5000:_ZN6libdar13cat_directoryD0Ev
libdar64.so.5000:_ZN6libdar13cat_directoryD1Ev
libdar64.so.5000:_ZN6libdar13cat_directoryD2Ev
libdar64.so.5000:_ZN6libdar13cat_directoryaSERKS0_
libdar64.so.5000:_ZN6libdar13fichier_local11skip_to_eofEv
libdar64.so.5000:_ZN6libdar13fichier_local13skip_relativeEi
libdar64.so.5000:_ZN6libdar13fichier_local16change_ownershipERKNSt7__cxx1112basic_stringIcSt11char_traitsIcESaIcEEES8_
libdar64.so.5000:_ZN6libdar13fichier_local16copy_parent_fromERKS0_
libdar64.so.5000:_ZN6libdar13fichier_local17change_permissionEm
libdar64.so.5000:_ZN6libdar13fichier_local29fichier_global_inherited_readEPcmRmRNSt7__cxx1112basic_stringIcSt11char_traitsIcESaIcEEE
libdar64.so.5000:_ZN6libdar13fichier_local30fichier_global_inherited_writeEPKcm
libdar64.so.5000:_ZN6libdar13fichier_local4openERKNSt7__cxx1112basic_stringIcSt11char_traitsIcESaIcEEENS_7gf_modeEmbbb
libdar64.so.5000:_ZN6libdar13fichier_local4skipERKNS_8limitintImEE
libdar64.so.5000:_ZN6libdar13fichier_local9copy_fromERKS0_
libdar64.so.5000:_ZN6libdar13fichier_localC1ERKNSt7__cxx1112basic_stringIcSt11char_traitsIcESaIcEEEb
libdar64.so.5000:_ZN6libdar13fichier_localC1ERNS_16user_interactionERKNSt7__cxx1112basic_stringIcSt11char_traitsIcESaIcEEENS_7gf_modeEmbbb
libdar64.so.5000:_ZN6libdar13fichier_localC2ERKNSt7__cxx1112basic_stringIcSt11char_traitsIcESaIcEEEb
libdar64.so.5000:_ZN6libdar13fichier_localC2ERNS_16user_interactionERKNSt7__cxx1112basic_stringIcSt11char_traitsIcESaIcEEENS_7gf_modeEmbbb
libdar64.so.5000:_ZN6libdar13integer_checkEv
libdar64.so.5000:_ZN6libdar13slave_zapette6actionEv
libdar64.so.5000:_ZN6libdar13slave_zapetteC1EPNS_12generic_fileES2_S2_
libdar64.so.5000:_ZN6libdar13slave_zapetteC2EPNS_12generic_fileES2_S2_
libdar64.so.5000:_ZN6libdar13slave_zapetteD1Ev
libdar64.so.5000:_ZN6libdar13slave_zapetteD2Ev
libdar64.so.5000:_ZN6libdar13tools_int2strB5cxx11Ei
libdar64.so.5000:_ZN6libdar13tools_my_atoiEPKcRm
libdar64.so.5000:_ZN6libdar13tools_str2intERKNSt7__cxx1112basic_stringIcSt11char_traitsIcESaIcEEE
libdar64.so.5000:_ZN6libdar13tools_vprintfB5cxx11EPKcP13__va_list_tag
libdar64.so.5000:_ZN6libdar14data_tree_findENS_4pathERKNS_8data_dirERPKNS_9data_treeE
libdar64.so.5000:_ZN6libdar14data_tree_readERNS_12generic_fileEhPNS_11memory_poolE
libdar64.so.5000:_ZN6libdar14entrepot_local13read_dir_nextERNSt7__cxx1112basic_stringIcSt11char_traitsIcESaIcEEE
libdar64.so.5000:_ZN6libdar14entrepot_local14read_dir_resetEv
libdar64.so.5000:_ZN6libdar14entrepot_localC1ERKNSt7__cxx1112basic_stringIcSt11char_traitsIcESaIcEEES8_b
libdar64.so.5000:_ZN6libdar14entrepot_localC2ERKNSt7__cxx1112basic_stringIcSt11char_traitsIcESaIcEEES8_b
libdar64.so.5000:_ZN6libdar14entrepot_localaSERKS0_
libdar64.so.5000:_ZN6libdar14fichier_global14inherited_readEPcm
libdar64.so.5000:_ZN6libdar14fichier_global15inherited_writeEPKcm
libdar64.so.5000:_ZN6libdar14filtre_restoreERNS_16user_interactionEPNS_11memory_poolERKNS_4maskES6_RKNS_9catalogueERKNS_4pathEbbbbbRNS_10statisticsES6_bNS_9cat_inode17comparison_fieldsEbbbRKNS_11crit_actionENS_23archive_options_extract7t_dirtyEbbRKSt3setINS_10fsa_familyESt4lessISN_ESaISN_EE
libdar64.so.5000:_ZN6libdar14header_version4readERNS_12generic_fileERNS_16user_interactionEb
libdar64.so.5000:_ZN6libdar14header_version7detruitEv
libdar64.so.5000:_ZN6libdar14header_version9copy_fromERKS0_
libdar64.so.5000:_ZN6libdar14header_versionC1Ev
libdar64.so.5000:_ZN6libdar14header_versionC2Ev
libdar64.so.5000:_ZN6libdar14tools_get_egidB5cxx11Ev
libdar64.so.5000:_ZN6libdar14tools_get_euidB5cxx11Ev
libdar64.so.5000:_ZN6libdar14tools_get_sizeERKNSt7__cxx1112basic_stringIcSt11char_traitsIcESaIcEEE
libdar64.so.5000:_ZN6libdar14tools_look_forEPKciPKPc
libdar64.so.5000:_ZN6libdar14tools_readlinkB5cxx11EPKc
libdar64.so.5000:_ZN6libdar14tools_to_upperERKNSt7__cxx1112basic_stringIcSt11char_traitsIcESaIcEEERS5_
libdar64.so.5000:_ZN6libdar14tools_uint2strB5cxx11Em
libdar64.so.5000:_ZN6libdar14unmk_signatureEhRhRNS_12saved_statusEb
libdar64.so.5000:_ZN6libdar15archive_version4readERNS_12generic_fileE
libdar64.so.5000:_ZN6libdar15archive_version7to_charEh
libdar64.so.5000:_ZN6libdar15archive_version8to_digitEh
libdar64.so.5000:_ZN6libdar15archive_versionC1Eth
libdar64.so.5000:_ZN6libdar15archive_versionC2Eth
libdar64.so.5000:_ZN6libdar15close_and_cleanEv
libdar64.so.5000:_ZN6libdar15filesystem_diff10reset_readEv
libdar64.so.5000:_ZN6libdar15filesystem_diff13read_filenameERKNSt7__cxx1112basic_stringIcSt11char_traitsIcESaIcEEERPNS_9cat_nommeE
libdar64.so.5000:_ZN6libdar15filesystem_diff32skip_read_filename_in_parent_dirEv
libdar64.so.5000:_ZN6libdar15filesystem_diff8detruireEv
libdar64.so.5000:_ZN6libdar15filesystem_diff9copy_fromERKS0_
libdar64.so.5000:_ZN6libdar15filesystem_diffC1ERNS_16user_interactionERKNS_4pathEbRKNS_4maskEbbRKSt3setINS_10fsa_familyESt4lessISA_ESaISA_EE
libdar64.so.5000:_ZN6libdar15filesystem_diffC2ERNS_16user_interactionERKNS_4pathEbRKNS_4maskEbbRKSt3setINS_10fsa_familyESt4lessISA_ESaISA_EE
libdar64.so.5000:_ZN6libdar15pile_descriptorC1EPNS_4pileE
libdar64.so.5000:_ZN6libdar15pile_descriptorC2EPNS_4pileE
libdar64.so.5000:_ZN6libdar15tools_get_ctimeERKNSt7__cxx1112basic_stringIcSt11char_traitsIcESaIcEEE
libdar64.so.5000:_ZN6libdar15tools_get_mtimeERKNSt7__cxx1112basic_stringIcSt11char_traitsIcESaIcEEE
libdar64.so.5000:_ZN6libdar15tools_int2octalB5cxx11ERKm
libdar64.so.5000:_ZN6libdar15tools_make_dateERKNSt7__cxx1112basic_stringIcSt11char_traitsIcESaIcEEEbRKNS_8datetimeESA_SA_
libdar64.so.5000:_ZN6libdar15tools_octal2intERKNSt7__cxx1112basic_stringIcSt11char_traitsIcESaIcEEE
libdar64.so.5000:_ZN6libdar15tools_to_wupperERNSt7__cxx1112basic_stringIwSt11char_traitsIwESaIwEEE
libdar64.so.5000:_ZN6libdar15tools_uword2strB5cxx11Et
libdar64.so.5000:_ZN6libdar16all_fsa_familiesEv
libdar64.so.5000:_ZN6libdar16capability_CHOWNERNS_16user_interactionEb
libdar64.so.5000:_ZN6libdar16char2compressionEc
libdar64.so.5000:_ZN6libdar16compression2charENS_11compressionE
libdar64.so.5000:_ZN6libdar16entree_to_stringB5cxx11EPKNS_10cat_entreeE
libdar64.so.5000:_ZN6libdar16escape_catalogue13merge_cat_detEv
libdar64.so.5000:_ZN6libdar16escape_catalogue17set_esc_and_stackERKNS_15pile_descriptorE
libdar64.so.5000:_ZN6libdar16escape_catalogue21reset_reading_processEv
libdar64.so.5000:_ZN6libdar16escape_catalogue30tail_catalogue_to_current_readEv
libdar64.so.5000:_ZN6libdar16escape_catalogue7destroyEv
libdar64.so.5000:_ZN6libdar16escape_catalogue9copy_fromERKS0_
libdar64.so.5000:_ZN6libdar16escape_catalogueC1ERNS_16user_interactionERKNS_15pile_descriptorERKNS_14header_versionERKNSt7__cxx114listINS_8signatorESaISB_EEEb
libdar64.so.5000:_ZN6libdar16escape_catalogueC1ERNS_16user_interactionERKNS_15pile_descriptorERKNS_8datetimeERKNS_5labelE
libdar64.so.5000:_ZN6libdar16escape_catalogueC2ERNS_16user_interactionERKNS_15pile_descriptorERKNS_14header_versionERKNSt7__cxx114listINS_8signatorESaISB_EEEb
libdar64.so.5000:_ZN6libdar16escape_catalogueC2ERNS_16user_interactionERKNS_15pile_descriptorERKNS_8datetimeERKNS_5labelE
libdar64.so.5000:_ZN6libdar16escape_catalogueaSERKS0_
libdar64.so.5000:_ZN6libdar16local_display_eaERNS_16user_interactionEPKNS_9cat_inodeERKNSt7__cxx1112basic_stringIcSt11char_traitsIcESaIcEEESC_b
libdar64.so.5000:_ZN6libdar16op_diff_noexceptERNS_16user_interactionEPNS_7archiveERKNS_4pathERKNS_20archive_options_diffEPNS_10statisticsERtRNSt7__cxx1112basic_stringIcSt11char_traitsIcESaIcEEE
libdar64.so.5000:_ZN6libdar16op_test_noexceptERNS_16user_interactionEPNS_7archiveERKNS_20archive_options_testEPNS_10statisticsERtRNSt7__cxx1112basic_stringIcSt11char_traitsIcESaIcEEE
libdar64.so.5000:_ZN6libdar16same_signatoriesERKNSt7__cxx114listINS_8signatorESaIS2_EEES6_
libdar64.so.5000:_ZN6libdar16secu_memory_file11skip_to_eofEv
libdar64.so.5000:_ZN6libdar16secu_memory_file13skip_relativeEi
libdar64.so.5000:_ZN6libdar16secu_memory_file14inherited_readEPcm
libdar64.so.5000:_ZN6libdar16secu_memory_file15inherited_writeEPKcm
libdar64.so.5000:_ZN6libdar16secu_memory_file4skipERKNS_8limitintImEE
libdar64.so.5000:_ZN6libdar16tools_open_pipesERNS_16user_interactionERKNSt7__cxx1112basic_stringIcSt11char_traitsIcESaIcEEES9_RPNS_5tuyauESC_PNS_11memory_poolE
libdar64.so.5000:_ZN6libdar16tools_output2xmlERKNSt7__cxx1112basic_stringIcSt11char_traitsIcESaIcEEE
libdar64.so.5000:_ZN6libdar16tools_read_rangeERKNSt7__cxx1112basic_stringIcSt11char_traitsIcESaIcEEERiRm
libdar64.so.5000:_ZN6libdar16tools_strerror_rB5cxx11Ei
libdar64.so.5000:_ZN6libdar16tools_substituteERKNSt7__cxx1112basic_stringIcSt11char_traitsIcESaIcEEERKSt3mapIcS5_St4lessIcESaISt4pairIKcS5_EEE
libdar64.so.5000:_ZN6libdar16user_interaction20dar_manager_contentsEmRKNSt7__cxx1112basic_stringIcSt11char_traitsIcESaIcEEES8_
libdar64.so.5000:_ZN6libdar16user_interaction22dar_manager_show_filesERKNSt7__cxx1112basic_stringIcSt11char_traitsIcESaIcEEEbb
libdar64.so.5000:_ZN6libdar16user_interaction22dar_manager_statisticsEmRKNS_8limitintImEES4_S4_S4_
libdar64.so.5000:_ZN6libdar16user_interaction24dar_manager_show_versionEmRKNSt7__cxx1112basic_stringIcSt11char_traitsIcESaIcEEES8_S8_S8_
libdar64.so.5000:_ZN6libdar16user_interaction6printfEPKcz
libdar64.so.5000:_ZN6libdar16user_interaction7listingERKNSt7__cxx1112basic_stringIcSt11char_traitsIcESaIcEEES8_S8_S8_S8_S8_S8_bb
libdar64.so.5000:_ZN6libdar16user_interaction7warningERKNSt7__cxx1112basic_stringIcSt11char_traitsIcESaIcEEE
libdar64.so.5000:_ZN6libdar16user_interactionC1Ev
libdar64.so.5000:_ZN6libdar16user_interactionC2Ev
libdar64.so.5000:_ZN6libdar17capability_FOWNERERNS_16user_interactionEb
libdar64.so.5000:_ZN6libdar17filesystem_backup10reset_readERNS_8limitintImEE
libdar64.so.5000:_ZN6libdar17filesystem_backup23skip_read_to_parent_dirEv
libdar64.so.5000:_ZN6libdar17filesystem_backup4readERPNS_10cat_entreeERNS_8limitintImEES6_
libdar64.so.5000:_ZN6libdar17filesystem_backup8detruireEv
libdar64.so.5000:_ZN6libdar17filesystem_backup9copy_fromERKS0_
libdar64.so.5000:_ZN6libdar17filesystem_backupC1ERNS_16user_interactionERKNS_4pathEbRKNS_4maskEbbbbRNS_8limitintImEEbRKSt3setINS_10fsa_familyESt4lessISD_ESaISD_EE
libdar64.so.5000:_ZN6libdar17filesystem_backupC2ERNS_16user_interactionERKNS_4pathEbRKNS_4maskEbbbbRNS_8limitintImEEbRKSt3setINS_10fsa_familyESt4lessISD_ESaISD_EE
libdar64.so.5000:_ZN6libdar17filtre_differenceERNS_16user_interactionEPNS_11memory_poolERKNS_4maskES6_RKNS_9catalogueERKNS_4pathEbbbbRNS_10statisticsES6_bbNS_9cat_inode17comparison_fieldsERKNS_8limitintImEEbRKSt3setINS_10fsa_familyESt4lessISM_ESaISM_EEb
libdar64.so.5000:_ZN6libdar17filtre_sauvegardeERNS_16user_interactionEPNS_11memory_poolERKNS_4maskES6_RKNS_15pile_descriptorERNS_9catalogueERKSA_RKNS_4pathEbbbbbRNS_10statisticsEbS6_S6_RKNS_8limitintImEEbSM_bbbNS_9cat_inode17comparison_fieldsEbbbSM_SM_SM_SM_RKNSt7__cxx1112basic_stringIcSt11char_traitsIcESaIcEEES6_bRKSt3setINS_10fsa_familyESt4lessISY_ESaISY_EESW_
libdar64.so.5000:_ZN6libdar17tools_name_of_gidB5cxx11ERKNS_8limitintImEE
libdar64.so.5000:_ZN6libdar17tools_name_of_uidB5cxx11ERKNS_8limitintImEE
libdar64.so.5000:_ZN6libdar17tools_read_stringERNS_12generic_fileERNSt7__cxx1112basic_stringIcSt11char_traitsIcESaIcEEE
libdar64.so.5000:_ZN6libdar17tools_read_vectorERNS_12generic_fileERSt6vectorINSt7__cxx1112basic_stringIcSt11char_traitsIcESaIcEEESaIS8_EE
libdar64.so.5000:_ZN6libdar17tools_str2charptrERKNSt7__cxx1112basic_stringIcSt11char_traitsIcESaIcEEE
libdar64.so.5000:_ZN6libdar18char_2_crypto_algoEc
libdar64.so.5000:_ZN6libdar18compression2stringB5cxx11ENS_11compressionE
libdar64.so.5000:_ZN6libdar18crypto_algo_2_charENS_11crypto_algoE
libdar64.so.5000:_ZN6libdar18db2archive_versionEh
libdar64.so.5000:_ZN6libdar18filesystem_restore11reset_writeEv
libdar64.so.5000:_ZN6libdar18filesystem_restore14action_over_eaEPKNS_9cat_inodeEPKNS_9cat_nommeERKNSt7__cxx1112basic_stringIcSt11char_traitsIcESaIcEEENS_14over_action_eaE
libdar64.so.5000:_ZN6libdar18filesystem_restore15action_over_fsaEPKNS_9cat_inodeEPKNS_9cat_nommeERKNSt7__cxx1112basic_stringIcSt11char_traitsIcESaIcEEENS_14over_action_eaE
libdar64.so.5000:_ZN6libdar18filesystem_restore16action_over_dataEPKNS_9cat_inodeEPKNS_9cat_nommeERKNSt7__cxx1112basic_stringIcSt11char_traitsIcESaIcEEENS_16over_action_dataERNS0_20action_done_for_dataE
libdar64.so.5000:_ZN6libdar18filesystem_restore18action_over_removeEPKNS_9cat_inodeEPKNS_11cat_detruitERKNSt7__cxx1112basic_stringIcSt11char_traitsIcESaIcEEENS_16over_action_dataE
libdar64.so.5000:_ZN6libdar18filesystem_restore27restore_stack_dir_ownershipEv
libdar64.so.5000:_ZN6libdar18filesystem_restore5writeEPKNS_10cat_entreeERNS0_20action_done_for_dataERbS6_S6_S6_
libdar64.so.5000:_ZN6libdar18filesystem_restore8detruireEv
libdar64.so.5000:_ZN6libdar18filesystem_restoreC1ERNS_16user_interactionERKNS_4pathEbbRKNS_4maskENS_9cat_inode17comparison_fieldsEbbPKNS_11crit_actionEbRKSt3setINS_10fsa_familyESt4lessISF_ESaISF_EE
libdar64.so.5000:_ZN6libdar18filesystem_restoreC2ERNS_16user_interactionERKNS_4pathEbbRKNS_4maskENS_9cat_inode17comparison_fieldsEbbPKNS_11crit_actionEbRKSt3setINS_10fsa_familyESt4lessISF_ESaISF_EE
libdar64.so.5000:_ZN6libdar18get_base_signatureEh
libdar64.so.5000:_ZN6libdar18local_storage_sizeB5cxx11ERKNS_9cat_inodeE
libdar64.so.5000:_ZN6libdar18string2compressionERKNSt7__cxx1112basic_stringIcSt11char_traitsIcESaIcEEE
libdar64.so.5000:_ZN6libdar18tools_convert_dateERKNSt7__cxx1112basic_stringIcSt11char_traitsIcESaIcEEE
libdar64.so.5000:_ZN6libdar18tools_display_dateB5cxx11ERKNS_8datetimeE
libdar64.so.5000:_ZN6libdar18tools_get_date_utcB5cxx11Ev
libdar64.so.5000:_ZN6libdar18tools_get_filesizeERKNS_4pathE
libdar64.so.5000:_ZN6libdar18tools_get_from_envEPPKcS1_
libdar64.so.5000:_ZN6libdar18tools_get_hostnameB5cxx11Ev
libdar64.so.5000:_ZN6libdar18tools_hook_executeERNS_16user_interactionERKNSt7__cxx1112basic_stringIcSt11char_traitsIcESaIcEEE
libdar64.so.5000:_ZN6libdar18tools_write_stringERNS_12generic_fileERKNSt7__cxx1112basic_stringIcSt11char_traitsIcESaIcEEE
libdar64.so.5000:_ZN6libdar18tools_write_vectorERNS_12generic_fileERKSt6vectorINSt7__cxx1112basic_stringIcSt11char_traitsIcESaIcEEESaIS8_EE
libdar64.so.5000:_ZN6libdar19fsa_scope_to_stringB5cxx11EbRKSt3setINS_10fsa_familyESt4lessIS1_ESaIS1_EE
libdar64.so.5000:_ZN6libdar19hash_algo_to_stringB5cxx11ENS_9hash_algoE
libdar64.so.5000:_ZN6libdar19op_extract_noexceptERNS_16user_interactionEPNS_7archiveERKNS_4pathERKNS_23archive_options_extractEPNS_10statisticsERtRNSt7__cxx1112basic_stringIcSt11char_traitsIcESaIcEEE
libdar64.so.5000:_ZN6libdar19op_isolate_noexceptERNS_16user_interactionEPNS_7archiveERKNS_4pathERKNSt7__cxx1112basic_stringIcSt11char_traitsIcESaIcEEESE_RKNS_23archive_options_isolateERtRSC_
libdar64.so.5000:_ZN6libdar19op_listing_noexceptERNS_16user_interactionEPNS_7archiveERKNS_23archive_options_listingERtRNSt7__cxx1112basic_stringIcSt11char_traitsIcESaIcEEE
libdar64.so.5000:_ZN6libdar19thread_cancellation11dead_threadEm
libdar64.so.5000:_ZN6libdar19thread_cancellation13cancel_statusEm
libdar64.so.5000:_ZN6libdar19thread_cancellation14add_to_prebornEmbm
libdar64.so.5000:_ZN6libdar19thread_cancellation18find_asso_tid_withEmRSt17_Rb_tree_iteratorISt4pairIKmmEES6_
libdar64.so.5000:_ZN6libdar19thread_cancellation19remove_from_prebornEmRbS1_
libdar64.so.5000:_ZN6libdar19thread_cancellation20associate_tid_to_tidEmm
libdar64.so.5000:_ZN6libdar19thread_cancellation21clear_pending_requestEm
libdar64.so.5000:_ZN6libdar19thread_cancellation26block_delayed_cancellationEb
libdar64.so.5000:_ZN6libdar19thread_cancellation26remove_association_for_tidEm
libdar64.so.5000:_ZN6libdar19thread_cancellation28set_cancellation_in_info_forEmbbmRbS1_S1_
libdar64.so.5000:_ZN6libdar19thread_cancellation30remove_association_targeted_atEm
libdar64.so.5000:_ZN6libdar19thread_cancellation6cancelEmbm
libdar64.so.5000:_ZN6libdar19thread_cancellationC1Ev
libdar64.so.5000:_ZN6libdar19thread_cancellationC2Ev
libdar64.so.5000:_ZN6libdar19thread_cancellationD0Ev
libdar64.so.5000:_ZN6libdar19thread_cancellationD1Ev
libdar64.so.5000:_ZN6libdar19thread_cancellationD2Ev
libdar64.so.5000:_ZN6libdar19tools_blocking_readEib
libdar64.so.5000:_ZN6libdar19tools_concat_vectorERKNSt7__cxx1112basic_stringIcSt11char_traitsIcESaIcEEERKSt6vectorIS5_SaIS5_EE
libdar64.so.5000:_ZN6libdar19tools_infinint2U_64ENS_8limitintImEERm
libdar64.so.5000:_ZN6libdar19tools_ownership2gidERKNSt7__cxx1112basic_stringIcSt11char_traitsIcESaIcEEE
libdar64.so.5000:_ZN6libdar19tools_ownership2uidERKNSt7__cxx1112basic_stringIcSt11char_traitsIcESaIcEEE
libdar64.so.5000:_ZN6libdar19tools_pseudo_randomEm
libdar64.so.5000:_ZN6libdar19tools_set_ownershipEiRKNSt7__cxx1112basic_stringIcSt11char_traitsIcESaIcEEES7_
libdar64.so.5000:_ZN6libdar20archive_options_diff11set_ea_maskERKNS_4maskE
libdar64.so.5000:_ZN6libdar20archive_options_diff11set_subtreeERKNS_4maskE
libdar64.so.5000:_ZN6libdar20archive_options_diff13set_selectionERKNS_4maskE
libdar64.so.5000:_ZN6libdar20archive_options_diff21set_furtive_read_modeEb
libdar64.so.5000:_ZN6libdar20archive_options_diff5clearEv
libdar64.so.5000:_ZN6libdar20archive_options_diff7destroyEv
libdar64.so.5000:_ZN6libdar20archive_options_diff9copy_fromERKS0_
libdar64.so.5000:_ZN6libdar20archive_options_read23set_default_crypto_sizeEv
libdar64.so.5000:_ZN6libdar20archive_options_read24unset_external_catalogueEv
libdar64.so.5000:_ZN6libdar20archive_options_read5clearEv
libdar64.so.5000:_ZN6libdar20archive_options_read7destroyEv
libdar64.so.5000:_ZN6libdar20archive_options_read9copy_fromERKS0_
libdar64.so.5000:_ZN6libdar20archive_options_readC1Ev
libdar64.so.5000:_ZN6libdar20archive_options_readC2Ev
libdar64.so.5000:_ZN6libdar20archive_options_test11set_subtreeERKNS_4maskE
libdar64.so.5000:_ZN6libdar20archive_options_test13set_selectionERKNS_4maskE
libdar64.so.5000:_ZN6libdar20archive_options_test5clearEv
libdar64.so.5000:_ZN6libdar20archive_options_test7destroyEv
libdar64.so.5000:_ZN6libdar20archive_options_test9copy_fromERKS0_
libdar64.so.5000:_ZN6libdar20compatible_signatureEhh
libdar64.so.5000:_ZN6libdar20create_crc_from_fileERNS_12generic_fileEPNS_11memory_poolEb
libdar64.so.5000:_ZN6libdar20create_crc_from_sizeENS_8limitintImEEPNS_11memory_poolE
libdar64.so.5000:_ZN6libdar20crit_show_entry_infoERNS_16user_interactionERKNSt7__cxx1112basic_stringIcSt11char_traitsIcESaIcEEEPKNS_10cat_entreeESC_
libdar64.so.5000:_ZN6libdar20crypto_algo_2_stringB5cxx11ENS_11crypto_algoE
libdar64.so.5000:_ZN6libdar20database_header_openERNS_16user_interactionEPNS_11memory_poolERKNSt7__cxx1112basic_stringIcSt11char_traitsIcESaIcEEERh
libdar64.so.5000:_ZN6libdar20ea_filesystem_has_eaERKNSt7__cxx1112basic_stringIcSt11char_traitsIcESaIcEEEPNS_11memory_poolE
libdar64.so.5000:_ZN6libdar20ea_filesystem_has_eaERKNSt7__cxx1112basic_stringIcSt11char_traitsIcESaIcEEERKNS_12ea_attributsERKNS_4maskEPNS_11memory_poolE
libdar64.so.5000:_ZN6libdar20fsa_family_to_stringB5cxx11ENS_10fsa_familyE
libdar64.so.5000:_ZN6libdar20fsa_nature_to_stringB5cxx11ENS_10fsa_natureE
libdar64.so.5000:_ZN6libdar20get_version_noexceptERmS0_RtRNSt7__cxx1112basic_stringIcSt11char_traitsIcESaIcEEEb
libdar64.so.5000:_ZN6libdar20get_version_noexceptERmS0_S0_RtRNSt7__cxx1112basic_stringIcSt11char_traitsIcESaIcEEEb
libdar64.so.5000:_ZN6libdar20int_tools_swap_bytesEPhm
libdar64.so.5000:_ZN6libdar20int_tools_swap_bytesERhS0_
libdar64.so.5000:_ZN6libdar20tools_addspacebeforeENSt7__cxx1112basic_stringIcSt11char_traitsIcESaIcEEEm
libdar64.so.5000:_ZN6libdar20tools_check_basenameERNS_16user_interactionERKNS_4pathERNSt7__cxx1112basic_stringIcSt11char_traitsIcESaIcEEERKSA_PNS_11memory_poolE
libdar64.so.5000:_ZN6libdar20tools_get_permissionEi
libdar64.so.5000:_ZN6libdar20tools_read_from_pipeERNS_16user_interactionEiRNS_8tlv_listE
libdar64.so.5000:_ZN6libdar20tools_set_permissionEim
libdar64.so.5000:_ZN6libdar20tools_split_in_wordsB5cxx11ERNS_12generic_fileE
libdar64.so.5000:_ZN6libdar20tools_split_in_wordsERKNSt7__cxx1112basic_stringIcSt11char_traitsIcESaIcEEE
libdar64.so.5000:_ZN6libdar20tools_str2signed_intERKNSt7__cxx1112basic_stringIcSt11char_traitsIcESaIcEEE
libdar64.so.5000:_ZN6libdar20tools_string_to_hexaERKNSt7__cxx1112basic_stringIcSt11char_traitsIcESaIcEEE
libdar64.so.5000:_ZN6libdar21archive_options_merge11set_ea_maskERKNS_4maskE
libdar64.so.5000:_ZN6libdar21archive_options_merge11set_subtreeERKNS_4maskE
libdar64.so.5000:_ZN6libdar21archive_options_merge12set_entrepotERKNS_8entrepotE
libdar64.so.5000:_ZN6libdar21archive_options_merge13set_selectionERKNS_4maskE
libdar64.so.5000:_ZN6libdar21archive_options_merge14set_compr_maskERKNS_4maskE
libdar64.so.5000:_ZN6libdar21archive_options_merge21set_overwriting_rulesERKNS_11crit_actionE
libdar64.so.5000:_ZN6libdar21archive_options_merge5clearEv
libdar64.so.5000:_ZN6libdar21archive_options_merge7destroyEv
libdar64.so.5000:_ZN6libdar21archive_options_merge9copy_fromERKS0_
libdar64.so.5000:_ZN6libdar21data_tree_permutationEttt
libdar64.so.5000:_ZN6libdar21data_tree_update_withEPKNS_13cat_directoryEtPNS_8data_dirE
libdar64.so.5000:_ZN6libdar21ea_filesystem_read_eaERKNSt7__cxx1112basic_stringIcSt11char_traitsIcESaIcEEERKNS_4maskEPNS_11memory_poolE
libdar64.so.5000:_ZN6libdar21empty_archive_versionEv
libdar64.so.5000:_ZN6libdar21fsa_scope_to_infinintERKSt3setINS_10fsa_familyESt4lessIS1_ESaIS1_EE
libdar64.so.5000:_ZN6libdar21generic_file_get_nameENS_7gf_modeE
libdar64.so.5000:_ZN6libdar21infinint_to_fsa_scopeERKNS_8limitintImEE
libdar64.so.5000:_ZN6libdar21int_tools_expand_byteEhRA8_h
libdar64.so.5000:_ZN6libdar21open_archive_noexceptERNS_16user_interactionERKNS_4pathERKNSt7__cxx1112basic_stringIcSt11char_traitsIcESaIcEEESC_RKNS_20archive_options_readERtRSA_
libdar64.so.5000:_ZN6libdar21sar_tools_extract_numERKNSt7__cxx1112basic_stringIcSt11char_traitsIcESaIcEEES7_RKNS_8limitintImEES7_RS9_
libdar64.so.5000:_ZN6libdar21tools_count_in_stringERKNSt7__cxx1112basic_stringIcSt11char_traitsIcESaIcEEEc
libdar64.so.5000:_ZN6libdar21tools_hook_substituteERKNSt7__cxx1112basic_stringIcSt11char_traitsIcESaIcEEES7_S7_S7_S7_S7_S7_
libdar64.so.5000:_ZN6libdar21tools_merge_to_vectorERSt6vectorINSt7__cxx1112basic_stringIcSt11char_traitsIcESaIcEEESaIS6_EERKS8_
libdar64.so.5000:_ZN6libdar21tools_string2tlv_listERNS_16user_interactionERKtRKSt6vectorINSt7__cxx1112basic_stringIcSt11char_traitsIcESaIcEEESaISA_EE
libdar64.so.5000:_ZN6libdar22archive_options_create11set_ea_maskERKNS_4maskE
libdar64.so.5000:_ZN6libdar22archive_options_create11set_subtreeERKNS_4maskE
libdar64.so.5000:_ZN6libdar22archive_options_create12set_entrepotERKNS_8entrepotE
libdar64.so.5000:_ZN6libdar22archive_options_create13set_selectionERKNS_4maskE
libdar64.so.5000:_ZN6libdar22archive_options_create14set_compr_maskERKNS_4maskE
libdar64.so.5000:_ZN6libdar22archive_options_create15set_backup_hookERKNSt7__cxx1112basic_stringIcSt11char_traitsIcESaIcEEERKNS_4maskE
libdar64.so.5000:_ZN6libdar22archive_options_create5clearEv
libdar64.so.5000:_ZN6libdar22archive_options_create7destroyEv
libdar64.so.5000:_ZN6libdar22archive_options_create9copy_fromERKS0_
libdar64.so.5000:_ZN6libdar22archive_options_createC1ERKS0_
libdar64.so.5000:_ZN6libdar22archive_options_createC1Ev
libdar64.so.5000:_ZN6libdar22archive_options_createC2ERKS0_
libdar64.so.5000:_ZN6libdar22archive_options_createC2Ev
libdar64.so.5000:_ZN6libdar22close_archive_noexceptEPNS_7archiveERtRNSt7__cxx1112basic_stringIcSt11char_traitsIcESaIcEEE
libdar64.so.5000:_ZN6libdar22database_header_createERNS_16user_interactionEPNS_11memory_poolERKNSt7__cxx1112basic_stringIcSt11char_traitsIcESaIcEEEb
libdar64.so.5000:_ZN6libdar22ea_filesystem_clear_eaERKNSt7__cxx1112basic_stringIcSt11char_traitsIcESaIcEEERKNS_4maskEPNS_11memory_poolE
libdar64.so.5000:_ZN6libdar22ea_filesystem_write_eaERKNSt7__cxx1112basic_stringIcSt11char_traitsIcESaIcEEERKNS_12ea_attributsERKNS_4maskE
libdar64.so.5000:_ZN6libdar22macro_tools_get_slicesEPKNS_9cat_nommeENS_12slice_layoutE
libdar64.so.5000:_ZN6libdar22merge_archive_noexceptERNS_16user_interactionERKNS_4pathEPNS_7archiveERKNSt7__cxx1112basic_stringIcSt11char_traitsIcESaIcEEESE_RKNS_21archive_options_mergeEPNS_10statisticsERtRSC_
libdar64.so.5000:_ZN6libdar22tools_display_featuresERNS_16user_interactionE
libdar64.so.5000:_ZN6libdar22tools_extract_basenameEPKcRNSt7__cxx1112basic_stringIcSt11char_traitsIcESaIcEEE
libdar64.so.5000:_ZN6libdar22tools_gpgme_strerror_rB5cxx11Ej
libdar64.so.5000:_ZN6libdar22tools_read_string_sizeERNS_12generic_fileERNSt7__cxx1112basic_stringIcSt11char_traitsIcESaIcEEENS_8limitintImEE
libdar64.so.5000:_ZN6libdar22tools_secu_string_showERNS_16user_interactionERKNSt7__cxx1112basic_stringIcSt11char_traitsIcESaIcEEERKNS_11secu_stringE
libdar64.so.5000:_ZN6libdar22tools_system_with_pipeERNS_16user_interactionERKNSt7__cxx1112basic_stringIcSt11char_traitsIcESaIcEEERKSt6vectorIS7_SaIS7_EEPNS_11memory_poolE
libdar64.so.5000:_ZN6libdar22tools_write_string_allERNS_12generic_fileERKNSt7__cxx1112basic_stringIcSt11char_traitsIcESaIcEEE
libdar64.so.5000:_ZN6libdar22xml_listing_attributesERNS_16user_interactionERKNSt7__cxx1112basic_stringIcSt11char_traitsIcESaIcEEES9_S9_PKNS_10cat_entreeEb
libdar64.so.5000:_ZN6libdar23archive_options_extract11set_ea_maskERKNS_4maskE
libdar64.so.5000:_ZN6libdar23archive_options_extract11set_subtreeERKNS_4maskE
libdar64.so.5000:_ZN6libdar23archive_options_extract13set_selectionERKNS_4maskE
libdar64.so.5000:_ZN6libdar23archive_options_extract21set_overwriting_rulesERKNS_11crit_actionE
libdar64.so.5000:_ZN6libdar23archive_options_extract5clearEv
libdar64.so.5000:_ZN6libdar23archive_options_extract7destroyEv
libdar64.so.5000:_ZN6libdar23archive_options_extract9copy_fromERKS0_
libdar64.so.5000:_ZN6libdar23archive_options_isolate12set_entrepotERKNS_8entrepotE
libdar64.so.5000:_ZN6libdar23archive_options_isolate5clearEv
libdar64.so.5000:_ZN6libdar23archive_options_isolate7destroyEv
libdar64.so.5000:_ZN6libdar23archive_options_isolate9copy_fromERKS0_
libdar64.so.5000:_ZN6libdar23archive_options_listing11set_subtreeERKNS_4maskE
libdar64.so.5000:_ZN6libdar23archive_options_listing13set_selectionERKNS_4maskE
libdar64.so.5000:_ZN6libdar23archive_options_listing16set_user_slicingERKNS_8limitintImEES4_
libdar64.so.5000:_ZN6libdar23archive_options_listing5clearEv
libdar64.so.5000:_ZN6libdar23archive_options_listing7destroyEv
libdar64.so.5000:_ZN6libdar23archive_options_listing9copy_fromERKS0_
libdar64.so.5000:_ZN6libdar23capability_SYS_RESOURCEERNS_16user_interactionEb
libdar64.so.5000:_ZN6libdar23create_archive_noexceptERNS_16user_interactionERKNS_4pathES4_RKNSt7__cxx1112basic_stringIcSt11char_traitsIcESaIcEEESC_RKNS_22archive_options_createEPNS_10statisticsERtRSA_
libdar64.so.5000:_ZN6libdar23extract_base_and_statusEhRhRNS_12saved_statusE
libdar64.so.5000:_ZN6libdar23int_tools_contract_byteERA8_KhRh
libdar64.so.5000:_ZN6libdar23sar_tools_make_filenameERKNSt7__cxx1112basic_stringIcSt11char_traitsIcESaIcEEERKNS_8limitintImEESB_S7_
libdar64.so.5000:_ZN6libdar23tools_block_all_signalsER10__sigset_t
libdar64.so.5000:_ZN6libdar23tools_find_last_char_ofERNSt7__cxx1112basic_stringIcSt11char_traitsIcESaIcEEEh
libdar64.so.5000:_ZN6libdar23tools_get_extended_sizeENSt7__cxx1112basic_stringIcSt11char_traitsIcESaIcEEEm
libdar64.so.5000:_ZN6libdar23tools_string_to_wstringERKNSt7__cxx1112basic_stringIcSt11char_traitsIcESaIcEEE
libdar64.so.5000:_ZN6libdar23tools_wstring_to_stringERKNSt7__cxx1112basic_stringIwSt11char_traitsIwESaIwEEE
libdar64.so.5000:_ZN6libdar24Ethread_cancel_with_attr7detruitEv
libdar64.so.5000:_ZN6libdar24Ethread_cancel_with_attr9copy_fromERKS0_
libdar64.so.5000:_ZN6libdar24Ethread_cancel_with_attrC1EbmRKNS_8limitintImEE
libdar64.so.5000:_ZN6libdar24Ethread_cancel_with_attrC2EbmRKNS_8limitintImEE
libdar64.so.5000:_ZN6libdar24get_children_of_noexceptERNS_16user_interactionEPNS_7archiveERKNSt7__cxx1112basic_stringIcSt11char_traitsIcESaIcEEERtRS9_
libdar64.so.5000:_ZN6libdar24macro_tools_close_layersERNS_16user_interactionERNS_4pileERKNS_14header_versionERKNS_9catalogueEbNS_11crypto_algoENS_11compressionERKSt6vectorINSt7__cxx1112basic_stringIcSt11char_traitsIcESaIcEEESaISI_EESM_b
libdar64.so.5000:_ZN6libdar24macro_tools_open_archiveERNS_16user_interactionEPNS_11memory_poolERKNS_8entrepotERKNSt7__cxx1112basic_stringIcSt11char_traitsIcESaIcEEERKNS_8limitintImEESE_NS_11crypto_algoERKNS_11secu_stringEjRNS_4pileERNS_14header_versionESE_SE_SE_RSG_bbbbRNS7_4listINS_8signatorESaIST_EEERNS_12slice_layoutEbb
libdar64.so.5000:_ZN6libdar24tools_add_elastic_bufferERNS_12generic_fileEjjj
libdar64.so.5000:_ZN6libdar24tools_find_first_char_ofERNSt7__cxx1112basic_stringIcSt11char_traitsIcESaIcEEEh
libdar64.so.5000:_ZN6libdar24tools_noexcept_make_dateERKNSt7__cxx1112basic_stringIcSt11char_traitsIcESaIcEEEbRKNS_8datetimeESA_SA_
libdar64.so.5000:_ZN6libdar25filesystem_hard_link_read16make_read_entreeERNS_4pathERKNSt7__cxx1112basic_stringIcSt11char_traitsIcESaIcEEEbRKNS_4maskE
libdar64.so.5000:_ZN6libdar25macro_tools_create_layersERNS_16user_interactionERNS_4pileERNS_14header_versionERNS_12slice_layoutEPKS6_PNS_11memory_poolERKNS_8entrepotERKNSt7__cxx1112basic_stringIcSt11char_traitsIcESaIcEEESM_bbbRKNS_8limitintImEENS_11compressionEmSQ_SQ_SM_NS_11crypto_algoERKNS_11secu_stringEjRKSt6vectorISK_SaISK_EES10_bSM_bSM_NS_9hash_algoESQ_RKNS_5labelES14_b
libdar64.so.5000:_ZN6libdar25tools_split_path_basenameEPKcRPNS_4pathERNSt7__cxx1112basic_stringIcSt11char_traitsIcESaIcEEEPNS_11memory_poolE
libdar64.so.5000:_ZN6libdar25tools_split_path_basenameERKNSt7__cxx1112basic_stringIcSt11char_traitsIcESaIcEEERS5_S8_PNS_11memory_poolE
libdar64.so.5000:_ZN6libdar25user_interaction_callback10get_stringERKNSt7__cxx1112basic_stringIcSt11char_traitsIcESaIcEEEb
libdar64.so.5000:_ZN6libdar25user_interaction_callback15get_secu_stringERKNSt7__cxx1112basic_stringIcSt11char_traitsIcESaIcEEEb
libdar64.so.5000:_ZN6libdar25user_interaction_callback17inherited_warningERKNSt7__cxx1112basic_stringIcSt11char_traitsIcESaIcEEE
libdar64.so.5000:_ZN6libdar25user_interaction_callback20dar_manager_contentsEmRKNSt7__cxx1112basic_stringIcSt11char_traitsIcESaIcEEES8_
libdar64.so.5000:_ZN6libdar25user_interaction_callback22dar_manager_show_filesERKNSt7__cxx1112basic_stringIcSt11char_traitsIcESaIcEEEbb
libdar64.so.5000:_ZN6libdar25user_interaction_callback22dar_manager_statisticsEmRKNS_8limitintImEES4_S4_S4_
libdar64.so.5000:_ZN6libdar25user_interaction_callback24dar_manager_show_versionEmRKNSt7__cxx1112basic_stringIcSt11char_traitsIcESaIcEEES8_S8_S8_
libdar64.so.5000:_ZN6libdar25user_interaction_callback5pauseERKNSt7__cxx1112basic_stringIcSt11char_traitsIcESaIcEEE
libdar64.so.5000:_ZN6libdar25user_interaction_callback7listingERKNSt7__cxx1112basic_stringIcSt11char_traitsIcESaIcEEES8_S8_S8_S8_S8_S8_bb
libdar64.so.5000:_ZN6libdar25user_interaction_callbackC1EPFvRKNSt7__cxx1112basic_stringIcSt11char_traitsIcESaIcEEEPvEPFbS8_S9_EPFS6_S8_bS9_EPFNS_11secu_stringES8_bS9_ES9_
libdar64.so.5000:_ZN6libdar25user_interaction_callbackC2EPFvRKNSt7__cxx1112basic_stringIcSt11char_traitsIcESaIcEEEPvEPFbS8_S9_EPFS6_S8_bS9_EPFNS_11secu_stringES8_bS9_ES9_
libdar64.so.5000:_ZN6libdar26capability_LINUX_IMMUTABLEERNS_16user_interactionEb
libdar64.so.5000:_ZN6libdar26filesystem_hard_link_write10raw_set_eaEPKNS_9cat_nommeERKNS_12ea_attributsERKNSt7__cxx1112basic_stringIcSt11char_traitsIcESaIcEEERKNS_4maskE
libdar64.so.5000:_ZN6libdar26filesystem_hard_link_write15known_etiquetteERKNS_8limitintImEE
libdar64.so.5000:_ZN6libdar26filesystem_hard_link_write16raw_clear_ea_setEPKNS_9cat_nommeERKNSt7__cxx1112basic_stringIcSt11char_traitsIcESaIcEEE
libdar64.so.5000:_ZN6libdar26filesystem_hard_link_write27clear_corres_if_pointing_toERKNS_8limitintImEERKNSt7__cxx1112basic_stringIcSt11char_traitsIcESaIcEEE
libdar64.so.5000:_ZN6libdar26filesystem_hard_link_write35write_hard_linked_target_if_not_setEPKNS_10cat_mirageERKNSt7__cxx1112basic_stringIcSt11char_traitsIcESaIcEEE
libdar64.so.5000:_ZN6libdar26filesystem_hard_link_write9make_fileEPKNS_9cat_nommeERKNS_4pathEbNS_9cat_inode17comparison_fieldsERKSt3setINS_10fsa_familyESt4lessISA_ESaISA_EE
libdar64.so.5000:_ZN6libdar26macro_tools_read_catalogueERNS_16user_interactionEPNS_11memory_poolERKNS_14header_versionERKNS_15pile_descriptorERKNS_8limitintImEERNSt7__cxx114listINS_8signatorESaISG_EEEbRKNS_5labelEb
libdar64.so.5000:_ZN6libdar27crit_ask_user_for_EA_actionERNS_16user_interactionERKNSt7__cxx1112basic_stringIcSt11char_traitsIcESaIcEEEPKNS_10cat_entreeESC_
libdar64.so.5000:_ZN6libdar27libdar_str2charptr_noexceptERKNSt7__cxx1112basic_stringIcSt11char_traitsIcESaIcEEERtRS5_
libdar64.so.5000:_ZN6libdar27tools_file_size_to_crc_sizeERKNS_8limitintImEE
libdar64.so.5000:_ZN6libdar27tools_get_compression_ratioB5cxx11ERKNS_8limitintImEES3_b
libdar64.so.5000:_ZN6libdar27tools_get_permission_stringB5cxx11Ecjb
libdar64.so.5000:_ZN6libdar27tools_release_struct_direntEP6dirent
libdar64.so.5000:_ZN6libdar27tools_substract_from_vectorERKSt6vectorINSt7__cxx1112basic_stringIcSt11char_traitsIcESaIcEEESaIS6_EESA_
libdar64.so.5000:_ZN6libdar27tools_unsigned_char_to_hexaB5cxx11Eh
libdar64.so.5000:_ZN6libdar28crit_ask_user_for_FSA_actionERNS_16user_interactionERKNSt7__cxx1112basic_stringIcSt11char_traitsIcESaIcEEEPKNS_10cat_entreeESC_
libdar64.so.5000:_ZN6libdar28sar_tools_make_padded_numberERKNSt7__cxx1112basic_stringIcSt11char_traitsIcESaIcEEERKNS_8limitintImEE
libdar64.so.5000:_ZN6libdar28tools_allocate_struct_direntERKNSt7__cxx1112basic_stringIcSt11char_traitsIcESaIcEEERmPNS_11memory_poolE
libdar64.so.5000:_ZN6libdar28tools_are_on_same_filesystemERKNSt7__cxx1112basic_stringIcSt11char_traitsIcESaIcEEES7_
libdar64.so.5000:_ZN6libdar28tools_escape_chars_in_stringERKNSt7__cxx1112basic_stringIcSt11char_traitsIcESaIcEEEPKc
libdar64.so.5000:_ZN6libdar28tools_relative2absolute_pathERKNS_4pathES2_
libdar64.so.5000:_ZN6libdar28tools_unlink_file_mask_regexERNS_16user_interactionERKNSt7__cxx1112basic_stringIcSt11char_traitsIcESaIcEEES9_b
libdar64.so.5000:_ZN6libdar29crit_ask_user_for_data_actionERNS_16user_interactionERKNSt7__cxx1112basic_stringIcSt11char_traitsIcESaIcEEEPKNS_10cat_entreeESC_
libdar64.so.5000:_ZN6libdar29integers_system_is_big_endianEv
libdar64.so.5000:_ZN6libdar29tools_is_equal_with_hourshiftERKNS_8limitintImEERKNS_8datetimeES6_
libdar64.so.5000:_ZN6libdar30generic_file_overlay_for_gpgmeC1EPNS_12generic_fileE
libdar64.so.5000:_ZN6libdar30generic_file_overlay_for_gpgmeC2EPNS_12generic_fileE
libdar64.so.5000:_ZN6libdar30macro_tools_get_catalogue_fromERNS_16user_interactionEPNS_11memory_poolERNS_4pileERKNS_14header_versionEbRNS_8limitintImEERKSA_RNSt7__cxx114listINS_8signatorESaISG_EEEb
libdar64.so.5000:_ZN6libdar30macro_tools_open_archive_tuyauERNS_16user_interactionEPNS_11memory_poolEiNS_7gf_modeERKNS_5labelES7_bRKNSt7__cxx1112basic_stringIcSt11char_traitsIcESaIcEEE
libdar64.so.5000:_ZN6libdar30tools_set_back_blocked_signalsE10__sigset_t
libdar64.so.5000:_ZN6libdar31tools_is_case_insensitive_equalERKNSt7__cxx1112basic_stringIcSt11char_traitsIcESaIcEEES7_
libdar64.so.5000:_ZN6libdar32macro_tools_get_terminator_startERNS_12generic_fileERKNS_15archive_versionE
libdar64.so.5000:_ZN6libdar32macro_tools_lax_search_catalogueERNS_16user_interactionEPNS_11memory_poolERNS_4pileERKNS_15archive_versionENS_11compressionEbbRKNS_5labelE
libdar64.so.5000:_ZN6libdar33tools_hook_substitute_and_executeERNS_16user_interactionERKNSt7__cxx1112basic_stringIcSt11char_traitsIcESaIcEEES9_S9_S9_S9_S9_S9_
libdar64.so.5000:_ZN6libdar34filesystem_specific_attribute_list14update_familesEv
libdar64.so.5000:_ZN6libdar34filesystem_specific_attribute_list17fill_HFS_FSA_withERKNSt7__cxx1112basic_stringIcSt11char_traitsIcESaIcEEEj
libdar64.so.5000:_ZN6libdar34filesystem_specific_attribute_list18fill_extX_FSA_withERKNSt7__cxx1112basic_stringIcSt11char_traitsIcESaIcEEEj
libdar64.so.5000:_ZN6libdar34filesystem_specific_attribute_list19family_to_signatureB5cxx11ENS_10fsa_familyE
libdar64.so.5000:_ZN6libdar34filesystem_specific_attribute_list19nature_to_signatureB5cxx11ENS_10fsa_natureE
libdar64.so.5000:_ZN6libdar34filesystem_specific_attribute_list19signature_to_familyERKNSt7__cxx1112basic_stringIcSt11char_traitsIcESaIcEEE
libdar64.so.5000:_ZN6libdar34filesystem_specific_attribute_list19signature_to_natureERKNSt7__cxx1112basic_stringIcSt11char_traitsIcESaIcEEE
libdar64.so.5000:_ZN6libdar34filesystem_specific_attribute_list27get_fsa_from_filesystem_forERKNSt7__cxx1112basic_stringIcSt11char_traitsIcESaIcEEERKSt3setINS_10fsa_familyESt4lessISA_ESaISA_EEj
libdar64.so.5000:_ZN6libdar34filesystem_specific_attribute_list3addERKNS_29filesystem_specific_attributeE
libdar64.so.5000:_ZN6libdar34filesystem_specific_attribute_list4readERNS_12generic_fileENS_15archive_versionE
libdar64.so.5000:_ZN6libdar34filesystem_specific_attribute_list5clearEv
libdar64.so.5000:_ZN6libdar34filesystem_specific_attribute_list8priv_addERKNS_29filesystem_specific_attributeE
libdar64.so.5000:_ZN6libdar34filesystem_specific_attribute_list8sort_fsaEv
libdar64.so.5000:_ZN6libdar34filesystem_specific_attribute_list9copy_fromERKS0_
libdar64.so.5000:_ZN6libdar34sar_tools_get_higher_number_in_dirERNS_8entrepotERKNSt7__cxx1112basic_stringIcSt11char_traitsIcESaIcEEERKNS_8limitintImEES9_RSB_
libdar64.so.5000:_ZN6libdar34tools_build_regex_for_exclude_maskERKNSt7__cxx1112basic_stringIcSt11char_traitsIcESaIcEEES7_
libdar64.so.5000:_ZN6libdar34tools_remove_last_char_if_equal_toEcRNSt7__cxx1112basic_stringIcSt11char_traitsIcESaIcEEE
libdar64.so.5000:_ZN6libdar35tools_avoid_slice_overwriting_regexERNS_16user_interactionERKNS_4pathERKNSt7__cxx1112basic_stringIcSt11char_traitsIcESaIcEEESC_bbbb
libdar64.so.5000:_ZN6libdar36tools_do_some_files_match_mask_regexERNS_16user_interactionERKNSt7__cxx1112basic_stringIcSt11char_traitsIcESaIcEEES9_
libdar64.so.5000:_ZN6libdar37database_header_get_supported_versionEv
libdar64.so.5000:_ZN6libdar38filtre_sequentially_read_all_catalogueERNS_9catalogueERNS_16user_interactionEb
libdar64.so.5000:_ZN6libdar38tools_display_integer_in_metric_systemENS_8limitintImEERKNSt7__cxx1112basic_stringIcSt11char_traitsIcESaIcEEEb
libdar64.so.5000:_ZN6libdar39tools_find_next_char_out_of_parenthesisERKNSt7__cxx1112basic_stringIcSt11char_traitsIcESaIcEEEcjRj
libdar64.so.5000:_ZN6libdar3sar10close_fileEb
libdar64.so.5000:_ZN6libdar3sar10set_offsetENS_8limitintImEE
libdar64.so.5000:_ZN6libdar3sar11skip_to_eofEv
libdar64.so.5000:_ZN6libdar3sar12hook_executeERKNS_8limitintImEE
libdar64.so.5000:_ZN6libdar3sar12skip_forwardEm
libdar64.so.5000:_ZN6libdar3sar13open_readonlyERKNSt7__cxx1112basic_stringIcSt11char_traitsIcESaIcEEERKNS_8limitintImEE
libdar64.so.5000:_ZN6libdar3sar13skip_backwardEm
libdar64.so.5000:_ZN6libdar3sar13skip_relativeEi
libdar64.so.5000:_ZN6libdar3sar14inherited_readEPcm
libdar64.so.5000:_ZN6libdar3sar14open_file_initEv
libdar64.so.5000:_ZN6libdar3sar14open_last_fileEv
libdar64.so.5000:_ZN6libdar3sar14open_writeonlyERKNSt7__cxx1112basic_stringIcSt11char_traitsIcESaIcEEERKNS_8limitintImEE
libdar64.so.5000:_ZN6libdar3sar15inherited_writeEPKcm
libdar64.so.5000:_ZN6libdar3sar17make_write_headerERKNS_8limitintImEEc
libdar64.so.5000:_ZN6libdar3sar19inherited_terminateEv
libdar64.so.5000:_ZN6libdar3sar20inherited_read_aheadERKNS_8limitintImEE
libdar64.so.5000:_ZN6libdar3sar4skipERKNS_8limitintImEE
libdar64.so.5000:_ZN6libdar3sar9open_fileENS_8limitintImEE
libdar64.so.5000:_ZN6libdar3sar9skippableENS_12generic_file12skippabilityERKNS_8limitintImEE
libdar64.so.5000:_ZN6libdar3sarC1ERKNS_16user_interactionENS_7gf_modeERKNSt7__cxx1112basic_stringIcSt11char_traitsIcESaIcEEESC_RKNS_8limitintImEESG_bbSG_RKNS_8entrepotERKNS_5labelESM_bmNS_9hash_algoESG_bSC_
libdar64.so.5000:_ZN6libdar3sarC1ERKNS_16user_interactionERKNSt7__cxx1112basic_stringIcSt11char_traitsIcESaIcEEESB_RKNS_8entrepotEbRKNS_8limitintImEEbSB_
libdar64.so.5000:_ZN6libdar3sarC2ERKNS_16user_interactionENS_7gf_modeERKNSt7__cxx1112basic_stringIcSt11char_traitsIcESaIcEEESC_RKNS_8limitintImEESG_bbSG_RKNS_8entrepotERKNS_5labelESM_bmNS_9hash_algoESG_bSC_
libdar64.so.5000:_ZN6libdar3sarC2ERKNS_16user_interactionERKNSt7__cxx1112basic_stringIcSt11char_traitsIcESaIcEEESB_RKNS_8entrepotEbRKNS_8limitintImEEbSB_
libdar64.so.5000:_ZN6libdar3sarD0Ev
libdar64.so.5000:_ZN6libdar3sarD1Ev
libdar64.so.5000:_ZN6libdar3sarD2Ev
libdar64.so.5000:_ZN6libdar3tlv4initERNS_12generic_fileE
libdar64.so.5000:_ZN6libdar3tlv5setupERNS_12generic_fileE
libdar64.so.5000:_ZN6libdar40macro_tools_get_derivated_catalogue_fromERNS_16user_interactionEPNS_11memory_poolERNS_4pileES5_RKNS_14header_versionEbRNS_8limitintImEERKSA_RNSt7__cxx114listINS_8signatorESaISG_EEEb
libdar64.so.5000:_ZN6libdar4Ebug5stackERKNSt7__cxx1112basic_stringIcSt11char_traitsIcESaIcEEES8_S8_
libdar64.so.5000:_ZN6libdar4EbugC1ERKNSt7__cxx1112basic_stringIcSt11char_traitsIcESaIcEEEi
libdar64.so.5000:_ZN6libdar4EbugC2ERKNSt7__cxx1112basic_stringIcSt11char_traitsIcESaIcEEEi
libdar64.so.5000:_ZN6libdar4deci6reduceEv
libdar64.so.5000:_ZN6libdar4deci7detruitEv
libdar64.so.5000:_ZN6libdar4deci9copy_fromERKS0_
libdar64.so.5000:_ZN6libdar4deciC1ENSt7__cxx1112basic_stringIcSt11char_traitsIcESaIcEEE
libdar64.so.5000:_ZN6libdar4deciC1ERKNS_8limitintImEE
libdar64.so.5000:_ZN6libdar4deciC2ENSt7__cxx1112basic_stringIcSt11char_traitsIcESaIcEEE
libdar64.so.5000:_ZN6libdar4deciC2ERKNS_8limitintImEE
libdar64.so.5000:_ZN6libdar4path11read_subdirERNSt7__cxx1112basic_stringIcSt11char_traitsIcESaIcEEE
libdar64.so.5000:_ZN6libdar4path3popERNSt7__cxx1112basic_stringIcSt11char_traitsIcESaIcEEE
libdar64.so.5000:_ZN6libdar4path6reduceEv
libdar64.so.5000:_ZN6libdar4path9pop_frontERNSt7__cxx1112basic_stringIcSt11char_traitsIcESaIcEEE
libdar64.so.5000:_ZN6libdar4pathC1ERKNSt7__cxx1112basic_stringIcSt11char_traitsIcESaIcEEEb
libdar64.so.5000:_ZN6libdar4pathC1ERKS0_
libdar64.so.5000:_ZN6libdar4pathC2ERKNSt7__cxx1112basic_stringIcSt11char_traitsIcESaIcEEEb
libdar64.so.5000:_ZN6libdar4pathC2ERKS0_
libdar64.so.5000:_ZN6libdar4pathaSERKS0_
libdar64.so.5000:_ZN6libdar4pathpLERKS0_
libdar64.so.5000:_ZN6libdar4pile11clear_labelERKNSt7__cxx1112basic_stringIcSt11char_traitsIcESaIcEEE
libdar64.so.5000:_ZN6libdar4pile11skip_to_eofEv
libdar64.so.5000:_ZN6libdar4pile12get_by_labelERKNSt7__cxx1112basic_stringIcSt11char_traitsIcESaIcEEE
libdar64.so.5000:_ZN6libdar4pile13skip_relativeEi
libdar64.so.5000:_ZN6libdar4pile14inherited_readEPcm
libdar64.so.5000:_ZN6libdar4pile14look_for_labelERKNSt7__cxx1112basic_stringIcSt11char_traitsIcESaIcEEE
libdar64.so.5000:_ZN6libdar4pile15inherited_writeEPKcm
libdar64.so.5000:_ZN6libdar4pile16flush_read_aboveEPNS_12generic_fileE
libdar64.so.5000:_ZN6libdar4pile16sync_write_aboveEPNS_12generic_fileE
libdar64.so.5000:_ZN6libdar4pile19inherited_terminateEv
libdar64.so.5000:_ZN6libdar4pile20inherited_flush_readEv
libdar64.so.5000:_ZN6libdar4pile20inherited_read_aheadERKNS_8limitintImEE
libdar64.so.5000:_ZN6libdar4pile20inherited_sync_writeEv
libdar64.so.5000:_ZN6libdar4pile3popEv
libdar64.so.5000:_ZN6libdar4pile4pushEPNS_12generic_fileERKNSt7__cxx1112basic_stringIcSt11char_traitsIcESaIcEEEb
libdar64.so.5000:_ZN6libdar4pile4skipERKNS_8limitintImEE
libdar64.so.5000:_ZN6libdar4pile7copy_toERNS_12generic_fileE
libdar64.so.5000:_ZN6libdar4pile7copy_toERNS_12generic_fileERKNS_8limitintImEERPNS_3crcE
libdar64.so.5000:_ZN6libdar4pile7detruitEv
libdar64.so.5000:_ZN6libdar4pile9add_labelERKNSt7__cxx1112basic_stringIcSt11char_traitsIcESaIcEEE
libdar64.so.5000:_ZN6libdar4pile9get_aboveEPKNS_12generic_fileE
libdar64.so.5000:_ZN6libdar4pile9get_belowEPKNS_12generic_fileE
libdar64.so.5000:_ZN6libdar4pile9skippableENS_12generic_file12skippabilityERKNS_8limitintImEE
libdar64.so.5000:_ZN6libdar5cache11flush_writeEv
libdar64.so.5000:_ZN6libdar5cache11skip_to_eofEv
libdar64.so.5000:_ZN6libdar5cache12alloc_bufferEm
libdar64.so.5000:_ZN6libdar5cache12clear_bufferEv
libdar64.so.5000:_ZN6libdar5cache12fulfill_readEv
libdar64.so.5000:_ZN6libdar5cache13shift_by_halfEv
libdar64.so.5000:_ZN6libdar5cache13skip_relativeEi
libdar64.so.5000:_ZN6libdar5cache14inherited_readEPcm
libdar64.so.5000:_ZN6libdar5cache14release_bufferEv
libdar64.so.5000:_ZN6libdar5cache15inherited_writeEPKcm
libdar64.so.5000:_ZN6libdar5cache4skipERKNS_8limitintImEE
libdar64.so.5000:_ZN6libdar5cache9skippableENS_12generic_file12skippabilityERKNS_8limitintImEE
libdar64.so.5000:_ZN6libdar5cacheC1ERNS_12generic_fileEbm
libdar64.so.5000:_ZN6libdar5cacheC2ERNS_12generic_fileEbm
libdar64.so.5000:_ZN6libdar5cacheD0Ev
libdar64.so.5000:_ZN6libdar5cacheD1Ev
libdar64.so.5000:_ZN6libdar5cacheD2Ev
libdar64.so.5000:_ZN6libdar5crc_i14copy_data_fromERKS0_
libdar64.so.5000:_ZN6libdar5crc_i5clearEv
libdar64.so.5000:_ZN6libdar5crc_i7computeEPKcm
libdar64.so.5000:_ZN6libdar5crc_i7computeERKNS_8limitintImEEPKcm
libdar64.so.5000:_ZN6libdar5crc_i9copy_fromERKS0_
libdar64.so.5000:_ZN6libdar5crc_iC1ERKNS_8limitintImEE
libdar64.so.5000:_ZN6libdar5crc_iC1ERKNS_8limitintImEERNS_12generic_fileE
libdar64.so.5000:_ZN6libdar5crc_iC2ERKNS_8limitintImEE
libdar64.so.5000:_ZN6libdar5crc_iC2ERKNS_8limitintImEERNS_12generic_fileE
libdar64.so.5000:_ZN6libdar5crc_n14copy_data_fromERKS0_
libdar64.so.5000:_ZN6libdar5crc_n5allocEm
libdar64.so.5000:_ZN6libdar5crc_n5clearEv
libdar64.so.5000:_ZN6libdar5crc_n7computeEPKcm
libdar64.so.5000:_ZN6libdar5crc_n7computeERKNS_8limitintImEEPKcm
libdar64.so.5000:_ZN6libdar5crc_n7destroyEv
libdar64.so.5000:_ZN6libdar5crc_n9copy_fromERKS0_
libdar64.so.5000:_ZN6libdar5crc_nC1Em
libdar64.so.5000:_ZN6libdar5crc_nC1EmRNS_12generic_fileE
libdar64.so.5000:_ZN6libdar5crc_nC2Em
libdar64.so.5000:_ZN6libdar5crc_nC2EmRNS_12generic_fileE
libdar64.so.5000:_ZN6libdar5crc_naSERKS0_
libdar64.so.5000:_ZN6libdar5etage4readERNSt7__cxx1112basic_stringIcSt11char_traitsIcESaIcEEE
libdar64.so.5000:_ZN6libdar5etageC1ERNS_16user_interactionEPKcRKNS_8datetimeES7_bb
libdar64.so.5000:_ZN6libdar5etageC2ERNS_16user_interactionEPKcRKNS_8datetimeES7_bb
libdar64.so.5000:_ZN6libdar5label26generate_internal_filenameEv
libdar64.so.5000:_ZN6libdar5label4readERNS_12generic_fileE
libdar64.so.5000:_ZN6libdar5label5clearEv
libdar64.so.5000:_ZN6libdar5label9copy_fromERKS0_
libdar64.so.5000:_ZN6libdar5labelC1Ev
libdar64.so.5000:_ZN6libdar5labelC2Ev
libdar64.so.5000:_ZN6libdar5range7segment10merge_withERKS1_
libdar64.so.5000:_ZN6libdar5rangepLERKS0_
libdar64.so.5000:_ZN6libdar5tronc11skip_to_eofEv
libdar64.so.5000:_ZN6libdar5tronc13skip_relativeEi
libdar64.so.5000:_ZN6libdar5tronc14inherited_readEPcm
libdar64.so.5000:_ZN6libdar5tronc15inherited_writeEPKcm
libdar64.so.5000:_ZN6libdar5tronc20inherited_read_aheadERKNS_8limitintImEE
libdar64.so.5000:_ZN6libdar5tronc25set_back_current_positionEv
libdar64.so.5000:_ZN6libdar5tronc4skipERKNS_8limitintImEE
libdar64.so.5000:_ZN6libdar5tronc6modifyERKNS_8limitintImEE
libdar64.so.5000:_ZN6libdar5tronc6modifyERKNS_8limitintImEES4_
libdar64.so.5000:_ZN6libdar5tronc9skippableENS_12generic_file12skippabilityERKNS_8limitintImEE
libdar64.so.5000:_ZN6libdar5troncC1EPNS_12generic_fileERKNS_8limitintImEENS_7gf_modeEb
libdar64.so.5000:_ZN6libdar5troncC1EPNS_12generic_fileERKNS_8limitintImEES6_NS_7gf_modeEb
libdar64.so.5000:_ZN6libdar5troncC1EPNS_12generic_fileERKNS_8limitintImEES6_b
libdar64.so.5000:_ZN6libdar5troncC1EPNS_12generic_fileERKNS_8limitintImEEb
libdar64.so.5000:_ZN6libdar5troncC2EPNS_12generic_fileERKNS_8limitintImEENS_7gf_modeEb
libdar64.so.5000:_ZN6libdar5troncC2EPNS_12generic_fileERKNS_8limitintImEES6_NS_7gf_modeEb
libdar64.so.5000:_ZN6libdar5troncC2EPNS_12generic_fileERKNS_8limitintImEES6_b
libdar64.so.5000:_ZN6libdar5troncC2EPNS_12generic_fileERKNS_8limitintImEEb
libdar64.so.5000:_ZN6libdar5tuyau11read_to_eofEv
libdar64.so.5000:_ZN6libdar5tuyau11skip_to_eofEv
libdar64.so.5000:_ZN6libdar5tuyau13close_read_fdEv
libdar64.so.5000:_ZN6libdar5tuyau13read_and_dropENS_8limitintImEE
libdar64.so.5000:_ZN6libdar5tuyau13skip_relativeEi
libdar64.so.5000:_ZN6libdar5tuyau14inherited_readEPcm
libdar64.so.5000:_ZN6libdar5tuyau15inherited_writeEPKcm
libdar64.so.5000:_ZN6libdar5tuyau16has_next_to_readEv
libdar64.so.5000:_ZN6libdar5tuyau19inherited_terminateEv
libdar64.so.5000:_ZN6libdar5tuyau20do_not_close_read_fdEv
libdar64.so.5000:_ZN6libdar5tuyau4skipERKNS_8limitintImEE
libdar64.so.5000:_ZN6libdar5tuyau9ouvertureEv
libdar64.so.5000:_ZN6libdar5tuyau9skippableENS_12generic_file12skippabilityERKNS_8limitintImEE
libdar64.so.5000:_ZN6libdar5tuyauC1ERKNS_16user_interactionE
libdar64.so.5000:_ZN6libdar5tuyauC1ERKNS_16user_interactionERKNSt7__cxx1112basic_stringIcSt11char_traitsIcESaIcEEENS_7gf_modeE
libdar64.so.5000:_ZN6libdar5tuyauC1ERKNS_16user_interactionEi
libdar64.so.5000:_ZN6libdar5tuyauC1ERKNS_16user_interactionEiNS_7gf_modeE
libdar64.so.5000:_ZN6libdar5tuyauC2ERKNS_16user_interactionE
libdar64.so.5000:_ZN6libdar5tuyauC2ERKNS_16user_interactionERKNSt7__cxx1112basic_stringIcSt11char_traitsIcESaIcEEENS_7gf_modeE
libdar64.so.5000:_ZN6libdar5tuyauC2ERKNS_16user_interactionEi
libdar64.so.5000:_ZN6libdar5tuyauC2ERKNS_16user_interactionEiNS_7gf_modeE
libdar64.so.5000:_ZN6libdar5tuyauD0Ev
libdar64.so.5000:_ZN6libdar5tuyauD1Ev
libdar64.so.5000:_ZN6libdar5tuyauD2Ev
libdar64.so.5000:_ZN6libdar6answer4readEPNS_12generic_fileEPct
libdar64.so.5000:_ZN6libdar6answer5writeEPNS_12generic_fileEPc
libdar64.so.5000:_ZN6libdar6defile6enfileEPKNS_10cat_entreeE
libdar64.so.5000:_ZN6libdar6escape10clean_readEv
libdar64.so.5000:_ZN6libdar6escape11flush_writeEv
libdar64.so.5000:_ZN6libdar6escape11skip_to_eofEv
libdar64.so.5000:_ZN6libdar6escape13skip_relativeEi
libdar64.so.5000:_ZN6libdar6escape13trouve_amorceEPKcmPKh
libdar64.so.5000:_ZN6libdar6escape14inherited_readEPcm
libdar64.so.5000:_ZN6libdar6escape15inherited_writeEPKcm
libdar64.so.5000:_ZN6libdar6escape16mini_read_bufferEv
libdar64.so.5000:_ZN6libdar6escape17skip_to_next_markENS0_13sequence_typeEb
libdar64.so.5000:_ZN6libdar6escape20inherited_read_aheadERKNS_8limitintImEE
libdar64.so.5000:_ZN6libdar6escape20next_to_read_is_markENS0_13sequence_typeE
libdar64.so.5000:_ZN6libdar6escape22remove_unjumpable_markENS0_13sequence_typeE
libdar64.so.5000:_ZN6libdar6escape26next_to_read_is_which_markERNS0_13sequence_typeE
libdar64.so.5000:_ZN6libdar6escape28add_mark_at_current_positionENS0_13sequence_typeE
libdar64.so.5000:_ZN6libdar6escape45remove_data_marks_and_stop_at_first_real_markEPcmRmPKh
libdar64.so.5000:_ZN6libdar6escape4skipERKNS_8limitintImEE
libdar64.so.5000:_ZN6libdar6escape9char2typeEc
libdar64.so.5000:_ZN6libdar6escape9copy_fromERKS0_
libdar64.so.5000:_ZN6libdar6escape9skippableENS_12generic_file12skippabilityERKNS_8limitintImEE
libdar64.so.5000:_ZN6libdar6escape9type2charENS0_13sequence_typeE
libdar64.so.5000:_ZN6libdar6escapeC1EPNS_12generic_fileERKSt3setINS0_13sequence_typeESt4lessIS4_ESaIS4_EE
libdar64.so.5000:_ZN6libdar6escapeC2EPNS_12generic_fileERKSt3setINS0_13sequence_typeESt4lessIS4_ESaIS4_EE
libdar64.so.5000:_ZN6libdar6escapeD0Ev
libdar64.so.5000:_ZN6libdar6escapeD1Ev
libdar64.so.5000:_ZN6libdar6escapeD2Ev
libdar64.so.5000:_ZN6libdar6escapeaSERKS0_
libdar64.so.5000:_ZN6libdar6header13free_pointersEv
libdar64.so.5000:_ZN6libdar6header14set_slice_sizeERKNS_8limitintImEE
libdar64.so.5000:_ZN6libdar6header20set_first_slice_sizeERKNS_8limitintImEE
libdar64.so.5000:_ZN6libdar6header4readERNS_16user_interactionERNS_12generic_fileEb
libdar64.so.5000:_ZN6libdar6header9copy_fromERKS0_
libdar64.so.5000:_ZN6libdar6header9fill_fromERNS_16user_interactionERKNS_8tlv_listE
libdar64.so.5000:_ZN6libdar6headerC1Ev
libdar64.so.5000:_ZN6libdar6headerC2Ev
libdar64.so.5000:_ZN6libdar6mem_ui6set_uiERKNS_16user_interactionE
libdar64.so.5000:_ZN6libdar6mem_ui8detruireEv
libdar64.so.5000:_ZN6libdar6mem_ui9copy_fromERKS0_
libdar64.so.5000:_ZN6libdar7EsystemC1ERKNSt7__cxx1112basic_stringIcSt11char_traitsIcESaIcEEES8_NS0_8io_errorE
libdar64.so.5000:_ZN6libdar7EsystemC2ERKNSt7__cxx1112basic_stringIcSt11char_traitsIcESaIcEEES8_NS0_8io_errorE
libdar64.so.5000:_ZN6libdar7archive10op_extractERNS_16user_interactionERKNS_4pathERKNS_23archive_options_extractEPNS_10statisticsE
libdar64.so.5000:_ZN6libdar7archive10op_isolateERNS_16user_interactionERKNS_4pathERKNSt7__cxx1112basic_stringIcSt11char_traitsIcESaIcEEESD_RKNS_23archive_options_isolateE
libdar64.so.5000:_ZN6libdar7archive10op_listingERNS_16user_interactionERKNS_23archive_options_listingE
libdar64.so.5000:_ZN6libdar7archive12get_entrepotEv
libdar64.so.5000:_ZN6libdar7archive12op_create_inERNS_16user_interactionENS0_9operationERKNS_4pathERKNS_8entrepotEPS0_RKNS_4maskESD_RKNSt7__cxx1112basic_stringIcSt11char_traitsIcESaIcEEESL_bbbbbbbRKNS_8limitintImEEbNS_11compressionEmSP_SP_SD_SL_NS_11crypto_algoERKNS_11secu_stringEjRKSt6vectorISJ_SaISJ_EESZ_SD_SP_bSL_SP_bbbbNS_9cat_inode17comparison_fieldsEbbSP_SL_SP_SP_bbSP_SL_NS_9hash_algoESP_SL_SD_bRKSt3setINS_10fsa_familyESt4lessIS14_ESaIS14_EEbPNS_10statisticsE
libdar64.so.5000:_ZN6libdar7archive13get_sar_paramERNS_8limitintImEES3_S3_S3_
libdar64.so.5000:_ZN6libdar7archive15get_children_ofERNS_16user_interactionERKNSt7__cxx1112basic_stringIcSt11char_traitsIcESaIcEEE
libdar64.so.5000:_ZN6libdar7archive15get_level2_sizeEv
libdar64.so.5000:_ZN6libdar7archive16op_create_in_subERNS_16user_interactionENS0_9operationERKNS_4pathERKNS_8entrepotEPKNS_9catalogueESC_bRKNS_4maskESF_RKNSt7__cxx1112basic_stringIcSt11char_traitsIcESaIcEEESN_bRKNS_11crit_actionEbbbbbbRKNS_8limitintImEEbNS_11compressionEmSU_SU_SF_SN_NS_11crypto_algoERKNS_11secu_stringEjRKSt6vectorISL_SaISL_EES14_SF_SU_bSN_SU_bbbbNS_9cat_inode17comparison_fieldsEbbbSU_SN_SU_SU_bbbSU_SN_NS_9hash_algoESU_SN_SF_bRKSt3setINS_10fsa_familyESt4lessIS19_ESaIS19_EEbPNS_10statisticsE
libdar64.so.5000:_ZN6libdar7archive23free_except_memory_poolEv
libdar64.so.5000:_ZN6libdar7archive24drop_all_filedescriptorsERNS_16user_interactionE
libdar64.so.5000:_ZN6libdar7archive24drop_all_filedescriptorsEv
libdar64.so.5000:_ZN6libdar7archive26enable_natural_destructionEv
libdar64.so.5000:_ZN6libdar7archive27disable_natural_destructionEv
libdar64.so.5000:_ZN6libdar7archive7op_diffERNS_16user_interactionERKNS_4pathERKNS_20archive_options_diffEPNS_10statisticsE
libdar64.so.5000:_ZN6libdar7archive7op_testERNS_16user_interactionERKNS_20archive_options_testEPNS_10statisticsE
libdar64.so.5000:_ZN6libdar7archive7summaryERNS_16user_interactionE
libdar64.so.5000:_ZN6libdar7archive8free_allEv
libdar64.so.5000:_ZN6libdar7archive9init_poolEv
libdar64.so.5000:_ZN6libdar7archiveC1ERNS_16user_interactionERKNS_4pathEPS0_RKNSt7__cxx1112basic_stringIcSt11char_traitsIcESaIcEEESE_RKNS_21archive_options_mergeEPNS_10statisticsE
libdar64.so.5000:_ZN6libdar7archiveC1ERNS_16user_interactionERKNS_4pathEPS0_RKNSt7__cxx1112basic_stringIcSt11char_traitsIcESaIcEEESE_RKNS_23archive_options_isolateE
libdar64.so.5000:_ZN6libdar7archiveC1ERNS_16user_interactionERKNS_4pathERKNSt7__cxx1112basic_stringIcSt11char_traitsIcESaIcEEESD_RKNS_20archive_options_readE
libdar64.so.5000:_ZN6libdar7archiveC1ERNS_16user_interactionERKNS_4pathES5_RKNSt7__cxx1112basic_stringIcSt11char_traitsIcESaIcEEESD_RKNS_22archive_options_createEPNS_10statisticsE
libdar64.so.5000:_ZN6libdar7archiveC2ERNS_16user_interactionERKNS_4pathEPS0_RKNSt7__cxx1112basic_stringIcSt11char_traitsIcESaIcEEESE_RKNS_21archive_options_mergeEPNS_10statisticsE
libdar64.so.5000:_ZN6libdar7archiveC2ERNS_16user_interactionERKNS_4pathEPS0_RKNSt7__cxx1112basic_stringIcSt11char_traitsIcESaIcEEESE_RKNS_23archive_options_isolateE
libdar64.so.5000:_ZN6libdar7archiveC2ERNS_16user_interactionERKNS_4pathERKNSt7__cxx1112basic_stringIcSt11char_traitsIcESaIcEEESD_RKNS_20archive_options_readE
libdar64.so.5000:_ZN6libdar7archiveC2ERNS_16user_interactionERKNS_4pathES5_RKNSt7__cxx1112basic_stringIcSt11char_traitsIcESaIcEEESD_RKNS_22archive_options_createEPNS_10statisticsE
libdar64.so.5000:_ZN6libdar7elasticC1EPKhjNS_17elastic_directionERKNS_15archive_versionE
libdar64.so.5000:_ZN6libdar7elasticC1ERNS_12generic_fileENS_17elastic_directionERKNS_15archive_versionE
libdar64.so.5000:_ZN6libdar7elasticC1Ej
libdar64.so.5000:_ZN6libdar7elasticC2EPKhjNS_17elastic_directionERKNS_15archive_versionE
libdar64.so.5000:_ZN6libdar7elasticC2ERNS_12generic_fileENS_17elastic_directionERKNS_15archive_versionE
libdar64.so.5000:_ZN6libdar7elasticC2Ej
libdar64.so.5000:_ZN6libdar7et_mask7detruitEv
libdar64.so.5000:_ZN6libdar7et_mask8add_maskERKNS_4maskE
libdar64.so.5000:_ZN6libdar7et_mask9copy_fromERKS0_
libdar64.so.5000:_ZN6libdar7et_maskaSERKS0_
libdar64.so.5000:_ZN6libdar7on_pool5allocEmPNS_11memory_poolE
libdar64.so.5000:_ZN6libdar7on_pool7deallocEPv
libdar64.so.5000:_ZN6libdar7request4readEPNS_12generic_fileE
libdar64.so.5000:_ZN6libdar7request5writeEPNS_12generic_fileE
libdar64.so.5000:_ZN6libdar7storage10make_allocENS_8limitintImEERPNS0_7celluleES5_
libdar64.so.5000:_ZN6libdar7storage10make_allocEjRPNS0_7celluleES3_
libdar64.so.5000:_ZN6libdar7storage24insert_bytes_at_iteratorENS0_8iteratorEPhm
libdar64.so.5000:_ZN6libdar7storage24remove_bytes_at_iteratorENS0_8iteratorENS_8limitintImEE
libdar64.so.5000:_ZN6libdar7storage24remove_bytes_at_iteratorENS0_8iteratorEm
libdar64.so.5000:_ZN6libdar7storage28insert_bytes_at_iterator_cmnENS0_8iteratorEbPhm
libdar64.so.5000:_ZN6libdar7storage29insert_null_bytes_at_iteratorENS0_8iteratorEm
libdar64.so.5000:_ZN6libdar7storage30insert_const_bytes_at_iteratorENS0_8iteratorEhm
libdar64.so.5000:_ZN6libdar7storage56insert_as_much_as_necessary_const_byte_to_be_as_wider_asERKS0_RKNS0_8iteratorEh
libdar64.so.5000:_ZN6libdar7storage5clearEh
libdar64.so.5000:_ZN6libdar7storage5writeERNS0_8iteratorEPhm
libdar64.so.5000:_ZN6libdar7storage6reduceEv
libdar64.so.5000:_ZN6libdar7storage7detruitEPNS0_7celluleE
libdar64.so.5000:_ZN6libdar7storage8fusionneEPNS0_7celluleES2_S2_S2_RS2_S3_
libdar64.so.5000:_ZN6libdar7storage8iterator16relative_skip_toEi
libdar64.so.5000:_ZN6libdar7storage8iterator7skip_toERKS0_NS_8limitintImEE
libdar64.so.5000:_ZN6libdar7storage8iteratormIEj
libdar64.so.5000:_ZN6libdar7storage8iteratorpLEj
libdar64.so.5000:_ZN6libdar7storage9copy_fromERKS0_
libdar64.so.5000:_ZN6libdar7storageC1ERKNS_8limitintImEE
libdar64.so.5000:_ZN6libdar7storageC1ERNS_12generic_fileERKNS_8limitintImEE
libdar64.so.5000:_ZN6libdar7storageC2ERKNS_8limitintImEE
libdar64.so.5000:_ZN6libdar7storageC2ERNS_12generic_fileERKNS_8limitintImEE
libdar64.so.5000:_ZN6libdar7storageixENS_8limitintImEE
libdar64.so.5000:_ZN6libdar7testing4freeEv
libdar64.so.5000:_ZN6libdar7testing9copy_fromERKS0_
libdar64.so.5000:_ZN6libdar7testingC1ERKNS_9criteriumERKNS_11crit_actionES6_
libdar64.so.5000:_ZN6libdar7testingC2ERKNS_9criteriumERKNS_11crit_actionES6_
libdar64.so.5000:_ZN6libdar7zapette13skip_relativeEi
libdar64.so.5000:_ZN6libdar7zapette14inherited_readEPcm
libdar64.so.5000:_ZN6libdar7zapette15inherited_writeEPKcm
libdar64.so.5000:_ZN6libdar7zapette15set_info_statusERKNSt7__cxx1112basic_stringIcSt11char_traitsIcESaIcEEE
libdar64.so.5000:_ZN6libdar7zapette19inherited_terminateEv
libdar64.so.5000:_ZN6libdar7zapette4skipERKNS_8limitintImEE
libdar64.so.5000:_ZN6libdar7zapetteC1ERKNS_16user_interactionEPNS_12generic_fileES5_b
libdar64.so.5000:_ZN6libdar7zapetteC2ERKNS_16user_interactionEPNS_12generic_fileES5_b
libdar64.so.5000:_ZN6libdar7zapetteD0Ev
libdar64.so.5000:_ZN6libdar7zapetteD1Ev
libdar64.so.5000:_ZN6libdar7zapetteD2Ev
libdar64.so.5000:_ZN6libdar8Egeneric15prepend_messageERKNSt7__cxx1112basic_stringIcSt11char_traitsIcESaIcEEE
libdar64.so.5000:_ZN6libdar8EgenericC1ERKNSt7__cxx1112basic_stringIcSt11char_traitsIcESaIcEEES8_
libdar64.so.5000:_ZN6libdar8EgenericC2ERKNSt7__cxx1112basic_stringIcSt11char_traitsIcESaIcEEES8_
libdar64.so.5000:_ZN6libdar8cat_file10clean_dataEv
libdar64.so.5000:_ZN6libdar8cat_file10set_offsetERKNS_8limitintImEE
libdar64.so.5000:_ZN6libdar8cat_file16post_constructorERKNS_15pile_descriptorE
libdar64.so.5000:_ZN6libdar8cat_file7detruitEv
libdar64.so.5000:_ZN6libdar8cat_file7set_crcERKNS_3crcE
libdar64.so.5000:_ZN6libdar8cat_fileC1ERKNS_8limitintImEES4_tRKNS_8datetimeES7_S7_RKNSt7__cxx1112basic_stringIcSt11char_traitsIcESaIcEEERKNS_4pathES4_S4_b
libdar64.so.5000:_ZN6libdar8cat_fileC1ERKS0_
libdar64.so.5000:_ZN6libdar8cat_fileC1ERNS_16user_interactionERKNS_13smart_pointerINS_15pile_descriptorEEERKNS_15archive_versionENS_12saved_statusENS_11compressionEb
libdar64.so.5000:_ZN6libdar8cat_fileC2ERKNS_8limitintImEES4_tRKNS_8datetimeES7_S7_RKNSt7__cxx1112basic_stringIcSt11char_traitsIcESaIcEEERKNS_4pathES4_S4_b
libdar64.so.5000:_ZN6libdar8cat_fileC2ERKS0_
libdar64.so.5000:_ZN6libdar8cat_fileC2ERNS_16user_interactionERKNS_13smart_pointerINS_15pile_descriptorEEERKNS_15archive_versionENS_12saved_statusENS_11compressionEb
libdar64.so.5000:_ZN6libdar8cat_lien10set_targetENSt7__cxx1112basic_stringIcSt11char_traitsIcESaIcEEE
libdar64.so.5000:_ZN6libdar8cat_lienC1ERKNS_8limitintImEES4_tRKNS_8datetimeES7_S7_RKNSt7__cxx1112basic_stringIcSt11char_traitsIcESaIcEEESF_S4_
libdar64.so.5000:_ZN6libdar8cat_lienC1ERNS_16user_interactionERKNS_13smart_pointerINS_15pile_descriptorEEERKNS_15archive_versionENS_12saved_statusEb
libdar64.so.5000:_ZN6libdar8cat_lienC2ERKNS_8limitintImEES4_tRKNS_8datetimeES7_S7_RKNSt7__cxx1112basic_stringIcSt11char_traitsIcESaIcEEESF_S4_
libdar64.so.5000:_ZN6libdar8cat_lienC2ERNS_16user_interactionERKNS_13smart_pointerINS_15pile_descriptorEEERKNS_15archive_versionENS_12saved_statusEb
libdar64.so.5000:_ZN6libdar8crit_and4gobeERS0_
libdar64.so.5000:_ZN6libdar8crit_and7detruitEv
libdar64.so.5000:_ZN6libdar8crit_and8add_critERKNS_9criteriumE
libdar64.so.5000:_ZN6libdar8crit_and9copy_fromERKS0_
libdar64.so.5000:_ZN6libdar8crit_not9copy_fromERKS0_
libdar64.so.5000:_ZN6libdar8data_dir12remove_childERKNSt7__cxx1112basic_stringIcSt11char_traitsIcESaIcEEE
libdar64.so.5000:_ZN6libdar8data_dir14fix_corruptionEv
libdar64.so.5000:_ZN6libdar8data_dir15remove_all_fromERKtS2_
libdar64.so.5000:_ZN6libdar8data_dir16find_or_additionERKNSt7__cxx1112basic_stringIcSt11char_traitsIcESaIcEEEbRKt
libdar64.so.5000:_ZN6libdar8data_dir17apply_permutationEtt
libdar64.so.5000:_ZN6libdar8data_dir20finalize_except_selfERKtRKNS_8datetimeES2_
libdar64.so.5000:_ZN6libdar8data_dir3addEPKNS_11cat_detruitERKt
libdar64.so.5000:_ZN6libdar8data_dir3addEPKNS_9cat_inodeERKt
libdar64.so.5000:_ZN6libdar8data_dir8finalizeERKtRKNS_8datetimeES2_
libdar64.so.5000:_ZN6libdar8data_dir8skip_outEt
libdar64.so.5000:_ZN6libdar8data_dir9add_childEPNS_9data_treeE
libdar64.so.5000:_ZN6libdar8data_dirC1ERKNS_9data_treeE
libdar64.so.5000:_ZN6libdar8data_dirC1ERKNSt7__cxx1112basic_stringIcSt11char_traitsIcESaIcEEE
libdar64.so.5000:_ZN6libdar8data_dirC1ERKS0_
libdar64.so.5000:_ZN6libdar8data_dirC1ERNS_12generic_fileEh
libdar64.so.5000:_ZN6libdar8data_dirC2ERKNS_9data_treeE
libdar64.so.5000:_ZN6libdar8data_dirC2ERKNSt7__cxx1112basic_stringIcSt11char_traitsIcESaIcEEE
libdar64.so.5000:_ZN6libdar8data_dirC2ERKS0_
libdar64.so.5000:_ZN6libdar8data_dirC2ERNS_12generic_fileEh
libdar64.so.5000:_ZN6libdar8data_dirD0Ev
libdar64.so.5000:_ZN6libdar8data_dirD1Ev
libdar64.so.5000:_ZN6libdar8data_dirD2Ev
libdar64.so.5000:_ZN6libdar8database11add_archiveERKNS_7archiveERKNSt7__cxx1112basic_stringIcSt11char_traitsIcESaIcEEESB_RKNS_20database_add_optionsE
libdar64.so.5000:_ZN6libdar8database11change_nameEtRKNSt7__cxx1112basic_stringIcSt11char_traitsIcESaIcEEERKNS_32database_change_basename_optionsE
libdar64.so.5000:_ZN6libdar8database14remove_archiveEttRKNS_23database_remove_optionsE
libdar64.so.5000:_ZN6libdar8database15set_permutationEtt
libdar64.so.5000:_ZN6libdar8database5buildERNS_16user_interactionERNS_12generic_fileEbbh
libdar64.so.5000:_ZN6libdar8database7restoreERNS_16user_interactionERKSt6vectorINSt7__cxx1112basic_stringIcSt11char_traitsIcESaIcEEESaIS9_EERKNS_24database_restore_optionsE
libdar64.so.5000:_ZN6libdar8database8set_pathEtRKNSt7__cxx1112basic_stringIcSt11char_traitsIcESaIcEEERKNS_28database_change_path_optionsE
libdar64.so.5000:_ZN6libdar8databaseC1ERNS_16user_interactionERKNSt7__cxx1112basic_stringIcSt11char_traitsIcESaIcEEERKNS_21database_open_optionsE
libdar64.so.5000:_ZN6libdar8databaseC1Ev
libdar64.so.5000:_ZN6libdar8databaseC2ERNS_16user_interactionERKNSt7__cxx1112basic_stringIcSt11char_traitsIcESaIcEEERKNS_21database_open_optionsE
libdar64.so.5000:_ZN6libdar8databaseC2Ev
libdar64.so.5000:_ZN6libdar8databaseD1Ev
libdar64.so.5000:_ZN6libdar8databaseD2Ev
libdar64.so.5000:_ZN6libdar8datetime17char_to_time_unitEc
libdar64.so.5000:_ZN6libdar8datetime17time_unit_to_charENS0_9time_unitE
libdar64.so.5000:_ZN6libdar8datetime18get_scaling_factorENS0_9time_unitES1_
libdar64.so.5000:_ZN6libdar8datetime3maxENS0_9time_unitES1_
libdar64.so.5000:_ZN6libdar8datetime3minENS0_9time_unitES1_
libdar64.so.5000:_ZN6libdar8datetime4readERNS_12generic_fileENS_15archive_versionE
libdar64.so.5000:_ZN6libdar8datetime5buildERKNS_8limitintImEES4_NS0_9time_unitE
libdar64.so.5000:_ZN6libdar8datetimeC1EllNS0_9time_unitE
libdar64.so.5000:_ZN6libdar8datetimeC2EllNS0_9time_unitE
libdar64.so.5000:_ZN6libdar8datetimemIERKS0_
libdar64.so.5000:_ZN6libdar8datetimepLERKS0_
libdar64.so.5000:_ZN6libdar8entrepot12set_locationERKNS_4pathE
libdar64.so.5000:_ZN6libdar8entrepotC1Ev
libdar64.so.5000:_ZN6libdar8entrepotC2Ev
libdar64.so.5000:_ZN6libdar8fsa_boolC1ERNS_12generic_fileENS_10fsa_familyENS_10fsa_natureE
libdar64.so.5000:_ZN6libdar8fsa_boolC2ERNS_12generic_fileENS_10fsa_familyENS_10fsa_natureE
libdar64.so.5000:_ZN6libdar8fsa_timeC1ERNS_12generic_fileENS_15archive_versionENS_10fsa_familyENS_10fsa_natureE
libdar64.so.5000:_ZN6libdar8fsa_timeC2ERNS_12generic_fileENS_15archive_versionENS_10fsa_familyENS_10fsa_natureE
libdar64.so.5000:_ZN6libdar8not_mask7detruitEv
libdar64.so.5000:_ZN6libdar8not_mask9copy_fromERKNS_4maskE
libdar64.so.5000:_ZN6libdar8not_mask9copy_fromERKS0_
libdar64.so.5000:_ZN6libdar8not_maskaSERKS0_
libdar64.so.5000:_ZN6libdar8tlv_list4initERNS_12generic_fileE
libdar64.so.5000:_ZN6libdar9cat_inode10ea_set_crcERKNS_3crcE
libdar64.so.5000:_ZN6libdar9cat_inode10fsa_attachEPNS_34filesystem_specific_attribute_listE
libdar64.so.5000:_ZN6libdar9cat_inode10nullifyptrEv
libdar64.so.5000:_ZN6libdar9cat_inode11fsa_set_crcERKNS_3crcE
libdar64.so.5000:_ZN6libdar9cat_inode13ea_set_offsetERKNS_8limitintImEE
libdar64.so.5000:_ZN6libdar9cat_inode14fsa_set_offsetERKNS_8limitintImEE
libdar64.so.5000:_ZN6libdar9cat_inode18fsa_partial_attachERKSt3setINS_10fsa_familyESt4lessIS2_ESaIS2_EE
libdar64.so.5000:_ZN6libdar9cat_inode19ea_set_saved_statusENS0_9ea_statusE
libdar64.so.5000:_ZN6libdar9cat_inode20fsa_set_saved_statusENS0_10fsa_statusE
libdar64.so.5000:_ZN6libdar9cat_inode7destroyEv
libdar64.so.5000:_ZN6libdar9cat_inode9copy_fromERKS0_
libdar64.so.5000:_ZN6libdar9cat_inode9ea_attachEPNS_12ea_attributsE
libdar64.so.5000:_ZN6libdar9cat_inodeC1ERKNS_8limitintImEES4_tRKNS_8datetimeES7_S7_RKNSt7__cxx1112basic_stringIcSt11char_traitsIcESaIcEEES4_
libdar64.so.5000:_ZN6libdar9cat_inodeC1ERKS0_
libdar64.so.5000:_ZN6libdar9cat_inodeC1ERNS_16user_interactionERKNS_13smart_pointerINS_15pile_descriptorEEERKNS_15archive_versionENS_12saved_statusEb
libdar64.so.5000:_ZN6libdar9cat_inodeC2ERKNS_8limitintImEES4_tRKNS_8datetimeES7_S7_RKNSt7__cxx1112basic_stringIcSt11char_traitsIcESaIcEEES4_
libdar64.so.5000:_ZN6libdar9cat_inodeC2ERKS0_
libdar64.so.5000:_ZN6libdar9cat_inodeC2ERNS_16user_interactionERKNS_13smart_pointerINS_15pile_descriptorEEERKNS_15archive_versionENS_12saved_statusEb
libdar64.so.5000:_ZN6libdar9cat_inodeD0Ev
libdar64.so.5000:_ZN6libdar9cat_inodeD1Ev
libdar64.so.5000:_ZN6libdar9cat_inodeD2Ev
libdar64.so.5000:_ZN6libdar9cat_inodeaSERKS0_
libdar64.so.5000:_ZN6libdar9cat_nommeC1ERKNS_13smart_pointerINS_15pile_descriptorEEEb
libdar64.so.5000:_ZN6libdar9cat_nommeC2ERKNS_13smart_pointerINS_15pile_descriptorEEEb
libdar64.so.5000:_ZN6libdar9catalogue10swap_stuffERS0_
libdar64.so.5000:_ZN6libdar9catalogue14reset_sub_readERKNS_4pathE
libdar64.so.5000:_ZN6libdar9catalogue15change_locationERKNS_15pile_descriptorE
libdar64.so.5000:_ZN6libdar9catalogue17partial_copy_fromERKS0_
libdar64.so.5000:_ZN6libdar9catalogue17re_add_in_replaceERKNS_13cat_directoryE
libdar64.so.5000:_ZN6libdar9catalogue17remove_read_entryERNSt7__cxx1112basic_stringIcSt11char_traitsIcESaIcEEE
libdar64.so.5000:_ZN6libdar9catalogue18copy_detruits_fromERKS0_
libdar64.so.5000:_ZN6libdar9catalogue18update_absent_withERKS0_NS_8limitintImEE
libdar64.so.5000:_ZN6libdar9catalogue19add_in_current_readEPNS_9cat_nommeE
libdar64.so.5000:_ZN6libdar9catalogue21drop_all_non_detruitsEv
libdar64.so.5000:_ZN6libdar9catalogue21update_destroyed_withERKS0_
libdar64.so.5000:_ZN6libdar9catalogue30tail_catalogue_to_current_readEv
libdar64.so.5000:_ZN6libdar9catalogue3addEPNS_10cat_entreeE
libdar64.so.5000:_ZN6libdar9catalogue8detruireEv
libdar64.so.5000:_ZN6libdar9catalogue8sub_readERPKNS_10cat_entreeE
libdar64.so.5000:_ZN6libdar9catalogue9re_add_inERKNSt7__cxx1112basic_stringIcSt11char_traitsIcESaIcEEE
libdar64.so.5000:_ZN6libdar9catalogue9reset_addEv
libdar64.so.5000:_ZN6libdar9catalogue9reset_allEv
libdar64.so.5000:_ZN6libdar9catalogueC1ERKNS_16user_interactionERKNS_15pile_descriptorERKNS_15archive_versionENS_11compressionEbRKNS_5labelEb
libdar64.so.5000:_ZN6libdar9catalogueC1ERKNS_16user_interactionERKNS_8datetimeERKNS_5labelE
libdar64.so.5000:_ZN6libdar9catalogueC2ERKNS_16user_interactionERKNS_15pile_descriptorERKNS_15archive_versionENS_11compressionEbRKNS_5labelEb
libdar64.so.5000:_ZN6libdar9catalogueC2ERKNS_16user_interactionERKNS_8datetimeERKNS_5labelE
libdar64.so.5000:_ZN6libdar9catalogueaSERKS0_
libdar64.so.5000:_ZN6libdar9criterium9get_inodeEPKNS_9cat_nommeE
libdar64.so.5000:_ZN6libdar9data_tree14fix_corruptionEv
libdar64.so.5000:_ZN6libdar9data_tree15remove_all_fromERKtS2_
libdar64.so.5000:_ZN6libdar9data_tree17apply_permutationEtt
libdar64.so.5000:_ZN6libdar9data_tree6status4readERNS_12generic_fileEh
libdar64.so.5000:_ZN6libdar9data_tree8finalizeERKtRKNS_8datetimeES2_
libdar64.so.5000:_ZN6libdar9data_tree8skip_outEt
libdar64.so.5000:_ZN6libdar9data_treeC1ERKNSt7__cxx1112basic_stringIcSt11char_traitsIcESaIcEEE
libdar64.so.5000:_ZN6libdar9data_treeC1ERNS_12generic_fileEh
libdar64.so.5000:_ZN6libdar9data_treeC2ERKNSt7__cxx1112basic_stringIcSt11char_traitsIcESaIcEEE
libdar64.so.5000:_ZN6libdar9data_treeC2ERNS_12generic_fileEh
libdar64.so.5000:_ZN6libdar9local_gidB5cxx11ERKNS_9cat_inodeE
libdar64.so.5000:_ZN6libdar9local_uidB5cxx11ERKNS_9cat_inodeE
libdar64.so.5000:_ZN6libdar9mask_listC1ERKNSt7__cxx1112basic_stringIcSt11char_traitsIcESaIcEEEbRKNS_4pathEb
libdar64.so.5000:_ZN6libdar9mask_listC2ERKNSt7__cxx1112basic_stringIcSt11char_traitsIcESaIcEEEbRKNS_4pathEb
libdar64.so.5000:_ZN6libdar9mem_sized20push_to_release_listEPNS_13mem_allocatorE
libdar64.so.5000:_ZN6libdar9mem_sized5allocERPNS_13mem_allocatorE
libdar64.so.5000:_ZN6libdar9mem_sizedC1Em
libdar64.so.5000:_ZN6libdar9mem_sizedC2Em
libdar64.so.5000:_ZN6libdar9mem_sizedD0Ev
libdar64.so.5000:_ZN6libdar9mem_sizedD1Ev
libdar64.so.5000:_ZN6libdar9mem_sizedD2Ev
libdar64.so.5000:_ZN6libdar9scrambler14inherited_readEPcm
libdar64.so.5000:_ZN6libdar9scrambler15inherited_writeEPKcm
libdar64.so.5000:_ZN6libdar9scramblerC1ERKNS_11secu_stringERNS_12generic_fileE
libdar64.so.5000:_ZN6libdar9scramblerC2ERKNS_11secu_stringERNS_12generic_fileE
libdar64.so.5000:_ZN6libdar9semaphore12build_stringERKNSt7__cxx1112basic_stringIcSt11char_traitsIcESaIcEEE
libdar64.so.5000:_ZN6libdar9semaphore5lowerEv
libdar64.so.5000:_ZN6libdar9semaphore5raiseERKNSt7__cxx1112basic_stringIcSt11char_traitsIcESaIcEEEPKNS_10cat_entreeEb
libdar64.so.5000:_ZN6libdar9semaphore7detruitEv
libdar64.so.5000:_ZN6libdar9semaphore9copy_fromERKS0_
libdar64.so.5000:_ZN6libdar9semaphoreC1ERNS_16user_interactionERKNSt7__cxx1112basic_stringIcSt11char_traitsIcESaIcEEERKNS_4maskE
libdar64.so.5000:_ZN6libdar9semaphoreC2ERNS_16user_interactionERKNSt7__cxx1112basic_stringIcSt11char_traitsIcESaIcEEERKNS_4maskE
libdar64.so.5000:_ZN6libdar9tools_endEv
libdar64.so.5000:_ZN6libdarlsERSoRKNS_8limitintImEE
libdar64.so.5000:_ZN6libdarplESt6vectorINSt7__cxx1112basic_stringIcSt11char_traitsIcESaIcEEESaIS6_EES8_
libdar64.so.5000:_ZNK6libdar10cat_device11sub_compareERKNS_9cat_inodeEb
libdar64.so.5000:_ZNK6libdar10cat_device14inherited_dumpERKNS_15pile_descriptorEb
libdar64.so.5000:_ZNK6libdar10cat_deviceeqERKNS_10cat_entreeE
libdar64.so.5000:_ZNK6libdar10cat_entree14inherited_dumpERKNS_15pile_descriptorEb
libdar64.so.5000:_ZNK6libdar10cat_entree18get_read_cat_layerEb
libdar64.so.5000:_ZNK6libdar10cat_entree4dumpERKNS_15pile_descriptorEb
libdar64.so.5000:_ZNK6libdar10cat_mirage14inherited_dumpERKNS_15pile_descriptorEb
libdar64.so.5000:_ZNK6libdar10cat_mirageeqERKNS_10cat_entreeE
libdar64.so.5000:_ZNK6libdar10crit_chain10get_actionERKNS_9cat_nommeES3_RNS_16over_action_dataERNS_14over_action_eaE
libdar64.so.5000:_ZNK6libdar10statistics4dumpERNS_16user_interactionE
libdar64.so.5000:_ZNK6libdar10statistics5totalEv
libdar64.so.5000:_ZNK6libdar10wrapperlib14z_get_avail_inEv
libdar64.so.5000:_ZNK6libdar10wrapperlib14z_get_next_outEv
libdar64.so.5000:_ZNK6libdar10wrapperlib14z_get_total_inEv
libdar64.so.5000:_ZNK6libdar10wrapperlib15bz_get_avail_inEv
libdar64.so.5000:_ZNK6libdar10wrapperlib15bz_get_next_outEv
libdar64.so.5000:_ZNK6libdar10wrapperlib15bz_get_total_inEv
libdar64.so.5000:_ZNK6libdar10wrapperlib15z_get_avail_outEv
libdar64.so.5000:_ZNK6libdar10wrapperlib15z_get_total_outEv
libdar64.so.5000:_ZNK6libdar10wrapperlib16bz_get_avail_outEv
libdar64.so.5000:_ZNK6libdar10wrapperlib16bz_get_total_outEv
libdar64.so.5000:_ZNK6libdar10wrapperlib17lzma_get_avail_inEv
libdar64.so.5000:_ZNK6libdar10wrapperlib17lzma_get_next_outEv
libdar64.so.5000:_ZNK6libdar10wrapperlib17lzma_get_total_inEv
libdar64.so.5000:_ZNK6libdar10wrapperlib18lzma_get_avail_outEv
libdar64.so.5000:_ZNK6libdar10wrapperlib18lzma_get_total_outEv
libdar64.so.5000:_ZNK6libdar11cat_chardeveqERKNS_10cat_entreeE
libdar64.so.5000:_ZNK6libdar11cat_detruit14inherited_dumpERKNS_15pile_descriptorEb
libdar64.so.5000:_ZNK6libdar11cat_detruiteqERKNS_10cat_entreeE
libdar64.so.5000:_ZNK6libdar11cat_ignoredeqERKNS_10cat_entreeE
libdar64.so.5000:_ZNK6libdar11mem_cluster17find_free_slot_inEm
libdar64.so.5000:_ZNK6libdar11mem_cluster18examination_statusB5cxx11Ev
libdar64.so.5000:_ZNK6libdar11mem_cluster4dumpB5cxx11Ev
libdar64.so.5000:_ZNK6libdar11memory_pool4dumpB5cxx11Ev
libdar64.so.5000:_ZNK6libdar11secu_string12compare_withEPKcm
libdar64.so.5000:_ZNK6libdar11simple_mask10is_coveredERKNSt7__cxx1112basic_stringIcSt11char_traitsIcESaIcEEE
libdar64.so.5000:_ZNK6libdar11simple_mask4dumpERKNSt7__cxx1112basic_stringIcSt11char_traitsIcESaIcEEE
libdar64.so.5000:_ZNK6libdar11sparse_file12get_positionEv
libdar64.so.5000:_ZNK6libdar12cat_blockdeveqERKNS_10cat_entreeE
libdar64.so.5000:_ZNK6libdar12ea_attributs10reset_readEv
libdar64.so.5000:_ZNK6libdar12ea_attributs10space_usedEv
libdar64.so.5000:_ZNK6libdar12ea_attributs4diffERKS0_RKNS_4maskE
libdar64.so.5000:_ZNK6libdar12ea_attributs4dumpERNS_12generic_fileE
libdar64.so.5000:_ZNK6libdar12ea_attributs4findERKNSt7__cxx1112basic_stringIcSt11char_traitsIcESaIcEEERS6_
libdar64.so.5000:_ZNK6libdar12ea_attributs4readERNSt7__cxx1112basic_stringIcSt11char_traitsIcESaIcEEES7_
libdar64.so.5000:_ZNK6libdar12ea_attributsplERKS0_
libdar64.so.5000:_ZNK6libdar12entree_stats7listingERNS_16user_interactionE
libdar64.so.5000:_ZNK6libdar12fsa_infinint14equal_value_toERKNS_29filesystem_specific_attributeE
libdar64.so.5000:_ZNK6libdar12fsa_infinint8show_valB5cxx11Ev
libdar64.so.5000:_ZNK6libdar12generic_file9terminateEv
libdar64.so.5000:_ZNK6libdar12regular_mask10is_coveredERKNSt7__cxx1112basic_stringIcSt11char_traitsIcESaIcEEE
libdar64.so.5000:_ZNK6libdar12regular_mask4dumpERKNSt7__cxx1112basic_stringIcSt11char_traitsIcESaIcEEE
libdar64.so.5000:_ZNK6libdar12slice_layout11which_sliceERKNS_8limitintImEERS2_S5_
libdar64.so.5000:_ZNK6libdar12slice_layout5writeERNS_12generic_fileE
libdar64.so.5000:_ZNK6libdar13cat_directory13get_tree_sizeEv
libdar64.so.5000:_ZNK6libdar13cat_directory13read_childrenERPKNS_9cat_nommeE
libdar64.so.5000:_ZNK6libdar13cat_directory14inherited_dumpERKNS_15pile_descriptorEb
libdar64.so.5000:_ZNK6libdar13cat_directory15get_tree_ea_numEv
libdar64.so.5000:_ZNK6libdar13cat_directory15search_childrenERKNSt7__cxx1112basic_stringIcSt11char_traitsIcESaIcEEERPKNS_9cat_nommeE
libdar64.so.5000:_ZNK6libdar13cat_directory19get_tree_mirage_numEv
libdar64.so.5000:_ZNK6libdar13cat_directory19reset_read_childrenEv
libdar64.so.5000:_ZNK6libdar13cat_directory22recursive_update_sizesEv
libdar64.so.5000:_ZNK6libdar13cat_directory24callback_for_children_ofERNS_16user_interactionERKNSt7__cxx1112basic_stringIcSt11char_traitsIcESaIcEEEb
libdar64.so.5000:_ZNK6libdar13cat_directory28get_etiquettes_found_in_treeERSt3mapINS_8limitintImEES3_St4lessIS3_ESaISt4pairIKS3_S3_EEE
libdar64.so.5000:_ZNK6libdar13cat_directory28recursive_has_changed_updateEv
libdar64.so.5000:_ZNK6libdar13cat_directory29recursive_flag_size_to_updateEv
libdar64.so.5000:_ZNK6libdar13cat_directory8end_readEv
libdar64.so.5000:_ZNK6libdar13cat_directoryeqERKNS_10cat_entreeE
libdar64.so.5000:_ZNK6libdar13fichier_local12get_positionEv
libdar64.so.5000:_ZNK6libdar13fichier_local13advise_to_intENS_14fichier_global6adviseE
libdar64.so.5000:_ZNK6libdar13fichier_local5fsyncEv
libdar64.so.5000:_ZNK6libdar13fichier_local7fadviseENS_14fichier_global6adviseE
libdar64.so.5000:_ZNK6libdar13fichier_local8get_sizeEv
libdar64.so.5000:_ZNK6libdar14crit_same_type8evaluateERKNS_9cat_nommeES3_
libdar64.so.5000:_ZNK6libdar14entrepot_local14inherited_openERNS_16user_interactionERKNSt7__cxx1112basic_stringIcSt11char_traitsIcESaIcEEENS_7gf_modeEbmbb
libdar64.so.5000:_ZNK6libdar14entrepot_local16inherited_unlinkERKNSt7__cxx1112basic_stringIcSt11char_traitsIcESaIcEEE
libdar64.so.5000:_ZNK6libdar14header_version5writeERNS_12generic_fileE
libdar64.so.5000:_ZNK6libdar14header_version7displayERNS_16user_interactionE
libdar64.so.5000:_ZNK6libdar14same_path_mask10is_coveredERKNSt7__cxx1112basic_stringIcSt11char_traitsIcESaIcEEE
libdar64.so.5000:_ZNK6libdar14same_path_mask4dumpERKNSt7__cxx1112basic_stringIcSt11char_traitsIcESaIcEEE
libdar64.so.5000:_ZNK6libdar15archive_version4dumpERNS_12generic_fileE
libdar64.so.5000:_ZNK6libdar15archive_version7displayB5cxx11Ev
libdar64.so.5000:_ZNK6libdar15cat_ignored_dir14inherited_dumpERKNS_15pile_descriptorEb
libdar64.so.5000:_ZNK6libdar15cat_ignored_direqERKNS_10cat_entreeE
libdar64.so.5000:_ZNK6libdar15pile_descriptor5checkEb
libdar64.so.5000:_ZNK6libdar16escape_catalogue10pre_add_eaEPKNS_10cat_entreeE
libdar64.so.5000:_ZNK6libdar16escape_catalogue10reset_readEv
libdar64.so.5000:_ZNK6libdar16escape_catalogue11pre_add_crcEPKNS_10cat_entreeE
libdar64.so.5000:_ZNK6libdar16escape_catalogue11pre_add_fsaEPKNS_10cat_entreeE
libdar64.so.5000:_ZNK6libdar16escape_catalogue13pre_add_dirtyEv
libdar64.so.5000:_ZNK6libdar16escape_catalogue14pre_add_ea_crcEPKNS_10cat_entreeE
libdar64.so.5000:_ZNK6libdar16escape_catalogue15pre_add_fsa_crcEPKNS_10cat_entreeE
libdar64.so.5000:_ZNK6libdar16escape_catalogue15read_if_presentEPNSt7__cxx1112basic_stringIcSt11char_traitsIcESaIcEEERPKNS_9cat_nommeE
libdar64.so.5000:_ZNK6libdar16escape_catalogue18pre_add_waste_markEv
libdar64.so.5000:_ZNK6libdar16escape_catalogue19pre_add_failed_markEv
libdar64.so.5000:_ZNK6libdar16escape_catalogue23skip_read_to_parent_dirEv
libdar64.so.5000:_ZNK6libdar16escape_catalogue4readERPKNS_10cat_entreeE
libdar64.so.5000:_ZNK6libdar16escape_catalogue7pre_addEPKNS_10cat_entreeE
libdar64.so.5000:_ZNK6libdar16escape_catalogue8end_readEv
libdar64.so.5000:_ZNK6libdar16exclude_dir_mask4dumpERKNSt7__cxx1112basic_stringIcSt11char_traitsIcESaIcEEE
libdar64.so.5000:_ZNK6libdar16simple_path_mask10is_coveredERKNS_4pathE
libdar64.so.5000:_ZNK6libdar16simple_path_mask4dumpERKNSt7__cxx1112basic_stringIcSt11char_traitsIcESaIcEEE
libdar64.so.5000:_ZNK6libdar16user_group_bases12get_usernameB5cxx11ERKNS_8limitintImEE
libdar64.so.5000:_ZNK6libdar16user_group_bases13get_groupnameB5cxx11ERKNS_8limitintImEE
libdar64.so.5000:_ZNK6libdar16user_group_bases4fillEv
libdar64.so.5000:_ZNK6libdar19thread_cancellation23check_self_cancellationEv
libdar64.so.5000:_ZNK6libdar20archive_options_read12get_ref_pathEv
libdar64.so.5000:_ZNK6libdar20archive_options_read16get_ref_basenameB5cxx11Ev
libdar64.so.5000:_ZNK6libdar21crit_in_place_is_file8evaluateERKNS_9cat_nommeES3_
libdar64.so.5000:_ZNK6libdar21crit_in_place_more_EA8evaluateERKNS_9cat_nommeES3_
libdar64.so.5000:_ZNK6libdar22crit_in_place_EA_saved8evaluateERKNS_9cat_nommeES3_
libdar64.so.5000:_ZNK6libdar22crit_in_place_is_inode8evaluateERKNS_9cat_nommeES3_
libdar64.so.5000:_ZNK6libdar23archive_options_listing11get_subtreeEv
libdar64.so.5000:_ZNK6libdar23archive_options_listing13get_selectionEv
libdar64.so.5000:_ZNK6libdar23archive_options_listing16get_user_slicingERNS_8limitintImEES3_
libdar64.so.5000:_ZNK6libdar23crit_in_place_EA_bigger8evaluateERKNS_9cat_nommeES3_
libdar64.so.5000:_ZNK6libdar24crit_in_place_data_dirty8evaluateERKNS_9cat_nommeES3_
libdar64.so.5000:_ZNK6libdar24crit_in_place_data_saved8evaluateERKNS_9cat_nommeES3_
libdar64.so.5000:_ZNK6libdar25crit_in_place_data_bigger8evaluateERKNS_9cat_nommeES3_
libdar64.so.5000:_ZNK6libdar25crit_in_place_data_sparse8evaluateERKNS_9cat_nommeES3_
libdar64.so.5000:_ZNK6libdar25user_interaction_callback5cloneEv
libdar64.so.5000:_ZNK6libdar28crit_in_place_EA_more_recent8evaluateERKNS_9cat_nommeES3_
libdar64.so.5000:_ZNK6libdar29filesystem_specific_attribute15is_same_type_asERKS0_
libdar64.so.5000:_ZNK6libdar29filesystem_specific_attributeltERKS0_
libdar64.so.5000:_ZNK6libdar30crit_in_place_data_more_recent8evaluateERKNS_9cat_nommeES3_
libdar64.so.5000:_ZNK6libdar33crit_in_place_is_hardlinked_inode8evaluateERKNS_9cat_nommeES3_
libdar64.so.5000:_ZNK6libdar34filesystem_specific_attribute_list12storage_sizeEv
libdar64.so.5000:_ZNK6libdar34filesystem_specific_attribute_list14is_included_inERKS0_RKSt3setINS_10fsa_familyESt4lessIS4_ESaIS4_EE
libdar64.so.5000:_ZNK6libdar34filesystem_specific_attribute_list14set_hfs_FSA_toERNS_16user_interactionERKNSt7__cxx1112basic_stringIcSt11char_traitsIcESaIcEEE
libdar64.so.5000:_ZNK6libdar34filesystem_specific_attribute_list15set_extX_FSA_toERNS_16user_interactionERKNSt7__cxx1112basic_stringIcSt11char_traitsIcESaIcEEE
libdar64.so.5000:_ZNK6libdar34filesystem_specific_attribute_list25set_fsa_to_filesystem_forERKNSt7__cxx1112basic_stringIcSt11char_traitsIcESaIcEEERKSt3setINS_10fsa_familyESt4lessISA_ESaISA_EERNS_16user_interactionE
libdar64.so.5000:_ZNK6libdar34filesystem_specific_attribute_list4findENS_10fsa_familyENS_10fsa_natureERPKNS_29filesystem_specific_attributeE
libdar64.so.5000:_ZNK6libdar34filesystem_specific_attribute_list5writeERNS_12generic_fileE
libdar64.so.5000:_ZNK6libdar34filesystem_specific_attribute_listixEm
libdar64.so.5000:_ZNK6libdar34filesystem_specific_attribute_listplERKS0_
libdar64.so.5000:_ZNK6libdar37crit_in_place_is_new_hardlinked_inode8evaluateERKNS_9cat_nommeES3_
libdar64.so.5000:_ZNK6libdar3sar12get_positionEv
libdar64.so.5000:_ZNK6libdar3sar28bytes_still_to_read_in_sliceEv
libdar64.so.5000:_ZNK6libdar3sar36is_current_eof_a_normal_end_of_sliceEv
libdar64.so.5000:_ZNK6libdar3tlv4dumpERNS_12generic_fileE
libdar64.so.5000:_ZNK6libdar40crit_in_place_EA_more_recent_or_equal_to8evaluateERKNS_9cat_nommeES3_
libdar64.so.5000:_ZNK6libdar42crit_in_place_data_more_recent_or_equal_to8evaluateERKNS_9cat_nommeES3_
libdar64.so.5000:_ZNK6libdar4deci5humanB5cxx11Ev
libdar64.so.5000:_ZNK6libdar4deci8computerEv
libdar64.so.5000:_ZNK6libdar4path12is_subdir_ofERKS0_b
libdar64.so.5000:_ZNK6libdar4path19explode_undisclosedEv
libdar64.so.5000:_ZNK6libdar4path7displayB5cxx11Ev
libdar64.so.5000:_ZNK6libdar4path8basenameB5cxx11Ev
libdar64.so.5000:_ZNK6libdar4patheqERKS0_
libdar64.so.5000:_ZNK6libdar4pile12get_positionEv
libdar64.so.5000:_ZNK6libdar5cache18available_in_cacheENS_12generic_file12skippabilityE
libdar64.so.5000:_ZNK6libdar5crc_i4dumpERNS_12generic_fileE
libdar64.so.5000:_ZNK6libdar5crc_i7crc2strB5cxx11Ev
libdar64.so.5000:_ZNK6libdar5crc_ieqERKNS_3crcE
libdar64.so.5000:_ZNK6libdar5crc_n4dumpERNS_12generic_fileE
libdar64.so.5000:_ZNK6libdar5crc_n7crc2strB5cxx11Ev
libdar64.so.5000:_ZNK6libdar5crc_neqERKNS_3crcE
libdar64.so.5000:_ZNK6libdar5label10is_clearedEv
libdar64.so.5000:_ZNK6libdar5label4dumpERNS_12generic_fileE
libdar64.so.5000:_ZNK6libdar5labeleqERKS0_
libdar64.so.5000:_ZNK6libdar5range10reset_readEv
libdar64.so.5000:_ZNK6libdar5range17read_next_segmentERNS_8limitintImEES3_
libdar64.so.5000:_ZNK6libdar5range7displayB5cxx11Ev
libdar64.so.5000:_ZNK6libdar5range7segment7displayB5cxx11Ev
libdar64.so.5000:_ZNK6libdar5tuyau11get_read_fdEv
libdar64.so.5000:_ZNK6libdar6escape12get_positionEv
libdar64.so.5000:_ZNK6libdar6header14build_tlv_listERNS_16user_interactionE
libdar64.so.5000:_ZNK6libdar6header14get_slice_sizeERNS_8limitintImEE
libdar64.so.5000:_ZNK6libdar6header20get_first_slice_sizeERNS_8limitintImEE
libdar64.so.5000:_ZNK6libdar6header5writeERNS_16user_interactionERNS_12generic_fileE
libdar64.so.5000:_ZNK6libdar6mem_ui6get_uiEv
libdar64.so.5000:_ZNK6libdar7archive13get_catalogueERNS_16user_interactionE
libdar64.so.5000:_ZNK6libdar7archive13get_catalogueEv
libdar64.so.5000:_ZNK6libdar7archive14get_dir_objectERKNSt7__cxx1112basic_stringIcSt11char_traitsIcESaIcEEE
libdar64.so.5000:_ZNK6libdar7archive14init_catalogueERNS_16user_interactionE
libdar64.so.5000:_ZNK6libdar7archive16has_subdirectoryERKNSt7__cxx1112basic_stringIcSt11char_traitsIcESaIcEEE
libdar64.so.5000:_ZNK6libdar7archive18check_gnupg_signedERNS_16user_interactionE
libdar64.so.5000:_ZNK6libdar7archive20get_layer1_data_nameEv
libdar64.so.5000:_ZNK6libdar7archive21free_and_check_memoryB5cxx11Ev
libdar64.so.5000:_ZNK6libdar7archive21get_children_in_tableERKNSt7__cxx1112basic_stringIcSt11char_traitsIcESaIcEEE
libdar64.so.5000:_ZNK6libdar7archive23check_against_isolationERNS_16user_interactionEb
libdar64.so.5000:_ZNK6libdar7archive23get_catalogue_data_nameEv
libdar64.so.5000:_ZNK6libdar7archive27get_first_slice_header_sizeEv
libdar64.so.5000:_ZNK6libdar7archive31get_non_first_slice_header_sizeEv
libdar64.so.5000:_ZNK6libdar7archive35only_contains_an_isolated_catalogueEv
libdar64.so.5000:_ZNK6libdar7crit_or8evaluateERKNS_9cat_nommeES3_
libdar64.so.5000:_ZNK6libdar7elastic12get_low_markERKNS_15archive_versionE
libdar64.so.5000:_ZNK6libdar7elastic13get_high_markERKNS_15archive_versionE
libdar64.so.5000:_ZNK6libdar7elastic17base_from_versionERKNS_15archive_versionE
libdar64.so.5000:_ZNK6libdar7elastic4dumpEPhj
libdar64.so.5000:_ZNK6libdar7elastic9randomizeEPh
libdar64.so.5000:_ZNK6libdar7et_mask12dump_logicalERKNSt7__cxx1112basic_stringIcSt11char_traitsIcESaIcEEES8_
libdar64.so.5000:_ZNK6libdar7storage10differenceERKS0_
libdar64.so.5000:_ZNK6libdar7storage4dumpERNS_12generic_fileE
libdar64.so.5000:_ZNK6libdar7storage4readERNS0_8iteratorEPhm
libdar64.so.5000:_ZNK6libdar7storage4sizeEv
libdar64.so.5000:_ZNK6libdar7storage8iterator12get_positionEv
libdar64.so.5000:_ZNK6libdar7storage8iteratordeEv
libdar64.so.5000:_ZNK6libdar7storageixERKNS_8limitintImEE
libdar64.so.5000:_ZNK6libdar7testing5checkEv
libdar64.so.5000:_ZNK6libdar7zapette13get_data_nameEv
libdar64.so.5000:_ZNK6libdar7zapette14make_transfertEtRKNS_8limitintImEEPcRKNSt7__cxx1112basic_stringIcSt11char_traitsIcESaIcEEERiRS2_
libdar64.so.5000:_ZNK6libdar7zapette27get_first_slice_header_sizeEv
libdar64.so.5000:_ZNK6libdar7zapette27is_an_old_start_end_archiveEv
libdar64.so.5000:_ZNK6libdar7zapette31get_non_first_slice_header_sizeEv
libdar64.so.5000:_ZNK6libdar8Egeneric11find_objectERKNSt7__cxx1112basic_stringIcSt11char_traitsIcESaIcEEE
libdar64.so.5000:_ZNK6libdar8Egeneric4dumpEv
libdar64.so.5000:_ZNK6libdar8Egeneric8dump_strB5cxx11Ev
libdar64.so.5000:_ZNK6libdar8cat_door8get_dataENS_8cat_file13get_data_modeE
libdar64.so.5000:_ZNK6libdar8cat_dooreqERKNS_10cat_entreeE
libdar64.so.5000:_ZNK6libdar8cat_file10get_offsetEv
libdar64.so.5000:_ZNK6libdar8cat_file11sub_compareERKNS_9cat_inodeEb
libdar64.so.5000:_ZNK6libdar8cat_file12get_crc_sizeERNS_8limitintImEE
libdar64.so.5000:_ZNK6libdar8cat_file14inherited_dumpERKNS_15pile_descriptorEb
libdar64.so.5000:_ZNK6libdar8cat_file17has_changed_sinceERKNS_9cat_inodeERKNS_8limitintImEENS1_17comparison_fieldsE
libdar64.so.5000:_ZNK6libdar8cat_file7get_crcERPKNS_3crcE
libdar64.so.5000:_ZNK6libdar8cat_file8get_dataENS0_13get_data_modeE
libdar64.so.5000:_ZNK6libdar8cat_lien10get_targetB5cxx11Ev
libdar64.so.5000:_ZNK6libdar8cat_lien11sub_compareERKNS_9cat_inodeEb
libdar64.so.5000:_ZNK6libdar8cat_lien14inherited_dumpERKNS_15pile_descriptorEb
libdar64.so.5000:_ZNK6libdar8cat_lieneqERKNS_10cat_entreeE
libdar64.so.5000:_ZNK6libdar8cat_tubeeqERKNS_10cat_entreeE
libdar64.so.5000:_ZNK6libdar8crit_and8evaluateERKNS_9cat_nommeES3_
libdar64.so.5000:_ZNK6libdar8data_dir10read_childERKNSt7__cxx1112basic_stringIcSt11char_traitsIcESaIcEEE
libdar64.so.5000:_ZNK6libdar8data_dir11check_orderERNS_16user_interactionERKNS_4pathERb
libdar64.so.5000:_ZNK6libdar8data_dir17read_all_childrenERSt6vectorINSt7__cxx1112basic_stringIcSt11char_traitsIcESaIcEEESaIS7_EE
libdar64.so.5000:_ZNK6libdar8data_dir25compute_most_recent_statsERSt6vectorINS_8limitintImEESaIS3_EES6_S6_S6_
libdar64.so.5000:_ZNK6libdar8data_dir4dumpERNS_12generic_fileE
libdar64.so.5000:_ZNK6libdar8data_dir4showERNS_16user_interactionEtNSt7__cxx1112basic_stringIcSt11char_traitsIcESaIcEEE
libdar64.so.5000:_ZNK6libdar8database10show_filesERNS_16user_interactionEtRKNS_21database_used_optionsE
libdar64.so.5000:_ZNK6libdar8database12show_versionERNS_16user_interactionENS_4pathE
libdar64.so.5000:_ZNK6libdar8database13show_contentsERNS_16user_interactionE
libdar64.so.5000:_ZNK6libdar8database17get_root_last_modERKt
libdar64.so.5000:_ZNK6libdar8database20get_real_archive_numEtb
libdar64.so.5000:_ZNK6libdar8database22show_most_recent_statsERNS_16user_interactionE
libdar64.so.5000:_ZNK6libdar8database4dumpERNS_16user_interactionERKNSt7__cxx1112basic_stringIcSt11char_traitsIcESaIcEEERKNS_21database_dump_optionsE
libdar64.so.5000:_ZNK6libdar8datetime10loose_diffERKS0_
libdar64.so.5000:_ZNK6libdar8datetime11loose_equalERKS0_
libdar64.so.5000:_ZNK6libdar8datetime16get_storage_sizeEv
libdar64.so.5000:_ZNK6libdar8datetime19get_subsecond_valueENS0_9time_unitE
libdar64.so.5000:_ZNK6libdar8datetime22reduce_to_largest_unitEv
libdar64.so.5000:_ZNK6libdar8datetime4dumpERNS_12generic_fileE
libdar64.so.5000:_ZNK6libdar8datetime9get_valueERNS_8limitintImEES3_NS0_9time_unitE
libdar64.so.5000:_ZNK6libdar8datetime9get_valueERlS1_NS0_9time_unitE
libdar64.so.5000:_ZNK6libdar8datetimeeqERKS0_
libdar64.so.5000:_ZNK6libdar8datetimeltERKS0_
libdar64.so.5000:_ZNK6libdar8entrepot13get_full_pathEv
libdar64.so.5000:_ZNK6libdar8entrepot4openERNS_16user_interactionERKNSt7__cxx1112basic_stringIcSt11char_traitsIcESaIcEEENS_7gf_modeEbmbbNS_9hash_algoE
libdar64.so.5000:_ZNK6libdar8fsa_bool14equal_value_toERKNS_29filesystem_specific_attributeE
libdar64.so.5000:_ZNK6libdar8fsa_time14equal_value_toERKNS_29filesystem_specific_attributeE
libdar64.so.5000:_ZNK6libdar8fsa_time8show_valB5cxx11Ev
libdar64.so.5000:_ZNK6libdar8not_mask4dumpERKNSt7__cxx1112basic_stringIcSt11char_traitsIcESaIcEEE
libdar64.so.5000:_ZNK6libdar8tlv_list4dumpERNS_12generic_fileE
libdar64.so.5000:_ZNK6libdar8tlv_listixEm
libdar64.so.5000:_ZNK6libdar9cat_inode10ea_get_crcERPKNS_3crcE
libdar64.so.5000:_ZNK6libdar9cat_inode10fsa_detachEv
libdar64.so.5000:_ZNK6libdar9cat_inode11ea_get_sizeEv
libdar64.so.5000:_ZNK6libdar9cat_inode11fsa_get_crcERPKNS_3crcE
libdar64.so.5000:_ZNK6libdar9cat_inode12fsa_get_sizeEv
libdar64.so.5000:_ZNK6libdar9cat_inode13ea_get_offsetERNS_8limitintImEE
libdar64.so.5000:_ZNK6libdar9cat_inode14fsa_get_offsetERNS_8limitintImEE
libdar64.so.5000:_ZNK6libdar9cat_inode14inherited_dumpERKNS_15pile_descriptorEb
libdar64.so.5000:_ZNK6libdar9cat_inode15ea_get_crc_sizeERNS_8limitintImEE
libdar64.so.5000:_ZNK6libdar9cat_inode16fsa_get_crc_sizeERNS_8limitintImEE
libdar64.so.5000:_ZNK6libdar9cat_inode17has_changed_sinceERKS0_RKNS_8limitintImEENS0_17comparison_fieldsE
libdar64.so.5000:_ZNK6libdar9cat_inode19is_more_recent_thanERKS0_RKNS_8limitintImEE
libdar64.so.5000:_ZNK6libdar9cat_inode6get_eaEv
libdar64.so.5000:_ZNK6libdar9cat_inode7compareERKS0_RKNS_4maskENS0_17comparison_fieldsERKNS_8limitintImEEbRKSt3setINS_10fsa_familyESt4lessISC_ESaISC_EEb
libdar64.so.5000:_ZNK6libdar9cat_inode7get_fsaEv
libdar64.so.5000:_ZNK6libdar9cat_inode7same_asERKS0_
libdar64.so.5000:_ZNK6libdar9cat_inode9ea_detachEv
libdar64.so.5000:_ZNK6libdar9cat_nomme14inherited_dumpERKNS_15pile_descriptorEb
libdar64.so.5000:_ZNK6libdar9cat_nommeeqERKNS_10cat_entreeE
libdar64.so.5000:_ZNK6libdar9cat_priseeqERKNS_10cat_entreeE
libdar64.so.5000:_ZNK6libdar9catalogue10reset_dumpEv
libdar64.so.5000:_ZNK6libdar9catalogue10reset_readEv
libdar64.so.5000:_ZNK6libdar9catalogue11tar_listingEbRKNS_4maskES3_bbbNSt7__cxx1112basic_stringIcSt11char_traitsIcESaIcEEE
libdar64.so.5000:_ZNK6libdar9catalogue11xml_listingEbRKNS_4maskES3_bbbNSt7__cxx1112basic_stringIcSt11char_traitsIcESaIcEEE
libdar64.so.5000:_ZNK6libdar9catalogue12is_subset_ofERKS0_
libdar64.so.5000:_ZNK6libdar9catalogue13reset_compareEv
libdar64.so.5000:_ZNK6libdar9catalogue13slice_listingEbRKNS_4maskES3_RKNS_12slice_layoutE
libdar64.so.5000:_ZNK6libdar9catalogue15read_if_presentEPNSt7__cxx1112basic_stringIcSt11char_traitsIcESaIcEEERPKNS_9cat_nommeE
libdar64.so.5000:_ZNK6libdar9catalogue23skip_read_to_parent_dirEv
libdar64.so.5000:_ZNK6libdar9catalogue4dumpERKNS_15pile_descriptorE
libdar64.so.5000:_ZNK6libdar9catalogue4readERPKNS_10cat_entreeE
libdar64.so.5000:_ZNK6libdar9catalogue7compareEPKNS_10cat_entreeERS3_
libdar64.so.5000:_ZNK6libdar9catalogue7listingEbRKNS_4maskES3_bbbNSt7__cxx1112basic_stringIcSt11char_traitsIcESaIcEEE
libdar64.so.5000:_ZNK6libdar9catalogue8end_readEv
libdar64.so.5000:_ZNK6libdar9data_tree15check_map_orderERNS_16user_interactionESt3mapItNS0_6statusESt4lessItESaISt4pairIKtS4_EEERKNS_4pathERKNSt7__cxx1112basic_stringIcSt11char_traitsIcESaIcEEERb
libdar64.so.5000:_ZNK6libdar9data_tree25compute_most_recent_statsERSt6vectorINS_8limitintImEESaIS3_EES6_S6_S6_
libdar64.so.5000:_ZNK6libdar9data_tree4dumpERNS_12generic_fileE
libdar64.so.5000:_ZNK6libdar9data_tree6get_EAERtRKNS_8datetimeEb
libdar64.so.5000:_ZNK6libdar9data_tree6status4dumpERNS_12generic_fileE
libdar64.so.5000:_ZNK6libdar9data_tree7listingERNS_16user_interactionE
libdar64.so.5000:_ZNK6libdar9data_tree7read_EAEtRNS_8datetimeERNS0_4etatE
libdar64.so.5000:_ZNK6libdar9data_tree8get_dataERtRKNS_8datetimeEb
libdar64.so.5000:_ZNK6libdar9data_tree9read_dataEtRNS_8datetimeERNS0_4etatE
libdar64.so.5000:_ZNK6libdar9mask_list10is_coveredERKNSt7__cxx1112basic_stringIcSt11char_traitsIcESaIcEEE
libdar64.so.5000:_ZNK6libdar9mask_list4dumpERKNSt7__cxx1112basic_stringIcSt11char_traitsIcESaIcEEE
libdar64.so.5000:_ZNK6libdar9mem_sized4dumpB5cxx11Ev
libdar64.so.5000:_ZNK6libdar9mem_sized8is_emptyEv
libdar64.so.5000:_ZThn104_N6libdar11trivial_sarD0Ev
libdar64.so.5000:_ZThn104_N6libdar11trivial_sarD1Ev
libdar64.so.5000:_ZThn104_N6libdar3sarD0Ev
libdar64.so.5000:_ZThn104_N6libdar3sarD1Ev
libdar64.so.5000:_ZThn104_N6libdar7zapetteD0Ev
libdar64.so.5000:_ZThn104_N6libdar7zapetteD1Ev
libdar64.so.5000:_ZThn64_N6libdar11trivial_sarD0Ev
libdar64.so.5000:_ZThn64_N6libdar11trivial_sarD1Ev
libdar64.so.5000:_ZThn64_N6libdar12hash_fichierD0Ev
libdar64.so.5000:_ZThn64_N6libdar12hash_fichierD1Ev
libdar64.so.5000:_ZThn64_N6libdar3sarD0Ev
libdar64.so.5000:_ZThn64_N6libdar3sarD1Ev
libdar64.so.5000:_ZThn64_N6libdar5tuyauD0Ev
libdar64.so.5000:_ZThn64_N6libdar5tuyauD1Ev
libdar64.so.5000:_ZThn64_N6libdar7zapette15set_info_statusERKNSt7__cxx1112basic_stringIcSt11char_traitsIcESaIcEEE
libdar64.so.5000:_ZThn64_N6libdar7zapetteD0Ev
libdar64.so.5000:_ZThn64_N6libdar7zapetteD1Ev
libdar64.so.5000:_ZThn64_NK6libdar7zapette13get_data_nameEv
libdar64.so.5000:_ZThn64_NK6libdar7zapette27is_an_old_start_end_archiveEv
libdar64.so.5000:_ZThn96_N6libdar12hash_fichierD0Ev
libdar64.so.5000:_ZThn96_N6libdar12hash_fichierD1Ev
libdar64.so.5000:_ZThn96_N6libdar5tuyauD0Ev
libdar64.so.5000:_ZThn96_N6libdar5tuyauD1Ev
